ARM GAS  /cygdrive/c/Users/embedded/AppData/Local/Temp/cc3JnFww.s 			page 1


   1              		.code	16
   2              		.file	"exampleGame.c"
   3              		.section	.debug_abbrev,"",%progbits
   4              	.Ldebug_abbrev0:
   5              		.section	.debug_info,"",%progbits
   6              	.Ldebug_info0:
   7              		.section	.debug_line,"",%progbits
   8              	.Ldebug_line0:
   9 0000 57010000 		.text
   9      02006400 
   9      00000201 
   9      FB0E0D00 
   9      01010101 
  10              	.Ltext0:
  11              		.align	2
  12              		.code 16
  13              		.thumb_func
  14              		.type	isValid, %function
  15              	isValid:
  16              	.LFB2:
  17              		.file 1 "exampleGame.c"
   1:exampleGame.c **** /******************************************************************************
   2:exampleGame.c ****  *
   3:exampleGame.c ****  * Copyright:
   4:exampleGame.c ****  *    (C) 2006 Embedded Artists AB
   5:exampleGame.c ****  *
   6:exampleGame.c ****  * File:
   7:exampleGame.c ****  *    exampleGame.c
   8:exampleGame.c ****  *
   9:exampleGame.c ****  * Description:
  10:exampleGame.c ****  *    Implementation of example game.
  11:exampleGame.c ****  *
  12:exampleGame.c ****  *****************************************************************************/
  13:exampleGame.c **** 
  14:exampleGame.c **** /******************************************************************************
  15:exampleGame.c ****  * Includes
  16:exampleGame.c ****  *****************************************************************************/
  17:exampleGame.c **** #include "../pre_emptive_os/api/osapi.h"
  18:exampleGame.c **** #include "../pre_emptive_os/api/general.h"
  19:exampleGame.c **** #include <printf_P.h>
  20:exampleGame.c **** #include <ea_init.h>
  21:exampleGame.c **** #include <stdlib.h>
  22:exampleGame.c **** #include "lcd.h"
  23:exampleGame.c **** #include "key.h"
  24:exampleGame.c **** #include "select.h"
  25:exampleGame.c **** 
  26:exampleGame.c **** #include "configAppl.h"
  27:exampleGame.c **** 
  28:exampleGame.c **** /******************************************************************************
  29:exampleGame.c ****  * Typedefs and defines
  30:exampleGame.c ****  *****************************************************************************/
  31:exampleGame.c **** #define GAME_NOT_STARTED 0
  32:exampleGame.c **** #define GAME_RUNNING     1
  33:exampleGame.c **** #define GAME_OVER        2
  34:exampleGame.c **** #define GAME_END         3
  35:exampleGame.c **** 
  36:exampleGame.c **** #define BOARD_WIDTH  10
ARM GAS  /cygdrive/c/Users/embedded/AppData/Local/Temp/cc3JnFww.s 			page 2


  37:exampleGame.c **** #define BOARD_HEIGHT 16
  38:exampleGame.c **** 
  39:exampleGame.c **** #define FIGURE_SIZE 4
  40:exampleGame.c **** #define NUM_OF_FIGURE 19
  41:exampleGame.c **** 
  42:exampleGame.c **** 
  43:exampleGame.c **** /*****************************************************************************
  44:exampleGame.c ****  * Local variables
  45:exampleGame.c ****  ****************************************************************************/
  46:exampleGame.c **** static tU8 gameStatus;
  47:exampleGame.c **** static tU8 score;
  48:exampleGame.c **** 
  49:exampleGame.c **** static tS32 shift[NUM_OF_FIGURE]={1,0,3,4,5,2,7,8,9,6,11,12,13,10,15,14,17,16,18};
  50:exampleGame.c **** static tS32 board[BOARD_WIDTH][BOARD_HEIGHT];
  51:exampleGame.c **** static tS32 currFigure;
  52:exampleGame.c **** static tS32 currXpos;
  53:exampleGame.c **** static tS32 currYpos;
  54:exampleGame.c **** static volatile tU32 lastUpdate;
  55:exampleGame.c **** static volatile tU32 delayTimeMs;
  56:exampleGame.c **** 
  57:exampleGame.c **** 
  58:exampleGame.c **** /*****************************************************************************
  59:exampleGame.c ****  * External variables
  60:exampleGame.c ****  ****************************************************************************/
  61:exampleGame.c **** extern volatile tU32 ms;
  62:exampleGame.c **** 
  63:exampleGame.c **** 
  64:exampleGame.c **** char figures[NUM_OF_FIGURE][FIGURE_SIZE][FIGURE_SIZE]=
  65:exampleGame.c **** {{".X..",
  66:exampleGame.c ****   ".X..",
  67:exampleGame.c ****   ".X..",
  68:exampleGame.c ****   ".X.."},
  69:exampleGame.c ****  {"....",
  70:exampleGame.c ****   "XXXX",
  71:exampleGame.c ****   "....",
  72:exampleGame.c ****   "...."},
  73:exampleGame.c **** 
  74:exampleGame.c ****  {"XXX.",
  75:exampleGame.c ****   "X...",
  76:exampleGame.c ****   "....",
  77:exampleGame.c ****   "...."},
  78:exampleGame.c ****  {".XX.",
  79:exampleGame.c ****   "..X.",
  80:exampleGame.c ****   "..X.",
  81:exampleGame.c ****   "...."},
  82:exampleGame.c ****  {"..X.",
  83:exampleGame.c ****   "XXX.",
  84:exampleGame.c ****   "....",
  85:exampleGame.c ****   "...."},
  86:exampleGame.c ****  {".X..",
  87:exampleGame.c ****   ".X..",
  88:exampleGame.c ****   ".XX.",
  89:exampleGame.c ****   "...."},
  90:exampleGame.c **** 
  91:exampleGame.c ****  {"XXX.",
  92:exampleGame.c ****   "..X.",
  93:exampleGame.c ****   "....",
ARM GAS  /cygdrive/c/Users/embedded/AppData/Local/Temp/cc3JnFww.s 			page 3


  94:exampleGame.c ****   "...."},
  95:exampleGame.c ****  {"..X.",
  96:exampleGame.c ****   "..X.",
  97:exampleGame.c ****   ".XX.",
  98:exampleGame.c ****   "...."},
  99:exampleGame.c ****  {"X...",
 100:exampleGame.c ****   "XXX.",
 101:exampleGame.c ****   "....",
 102:exampleGame.c ****   "...."},
 103:exampleGame.c ****  {".XX.",
 104:exampleGame.c ****   ".X..",
 105:exampleGame.c ****   ".X..",
 106:exampleGame.c ****   "...."},
 107:exampleGame.c **** 
 108:exampleGame.c ****  {".X..",
 109:exampleGame.c ****   "XXX.",
 110:exampleGame.c ****   "....",
 111:exampleGame.c ****   "...."},
 112:exampleGame.c ****  {".X..",
 113:exampleGame.c ****   ".XX.",
 114:exampleGame.c ****   ".X..",
 115:exampleGame.c ****   "...."},
 116:exampleGame.c ****  {"XXX.",
 117:exampleGame.c ****   ".X..",
 118:exampleGame.c ****   "....",
 119:exampleGame.c ****   "...."},
 120:exampleGame.c ****  {".X..",
 121:exampleGame.c ****   "XX..",
 122:exampleGame.c ****   ".X..",
 123:exampleGame.c ****   "...."},
 124:exampleGame.c **** 
 125:exampleGame.c ****  {"X...",
 126:exampleGame.c ****   "XX..",
 127:exampleGame.c ****   ".X..",
 128:exampleGame.c ****   "...."},
 129:exampleGame.c ****  {".XX.",
 130:exampleGame.c ****   "XX..",
 131:exampleGame.c ****   "....",
 132:exampleGame.c ****   "...."},
 133:exampleGame.c **** 
 134:exampleGame.c ****  {".X..",
 135:exampleGame.c ****   "XX..",
 136:exampleGame.c ****   "X...",
 137:exampleGame.c ****   "...."},
 138:exampleGame.c ****  {"XX..",
 139:exampleGame.c ****   ".XX.",
 140:exampleGame.c ****   "....",
 141:exampleGame.c ****   "...."},
 142:exampleGame.c ****  {"XX..",
 143:exampleGame.c ****   "XX..",
 144:exampleGame.c ****   "....",
 145:exampleGame.c ****   "...."}};
 146:exampleGame.c **** 
 147:exampleGame.c **** 
 148:exampleGame.c **** /*****************************************************************************
 149:exampleGame.c ****  *
 150:exampleGame.c ****  * Description:
ARM GAS  /cygdrive/c/Users/embedded/AppData/Local/Temp/cc3JnFww.s 			page 4


 151:exampleGame.c ****  *    Check if current place for figure is valid
 152:exampleGame.c ****  *
 153:exampleGame.c ****  ****************************************************************************/
 154:exampleGame.c **** static tS8
 155:exampleGame.c **** isValid(tS32 x, tS32 y, tS32 shape)
 156:exampleGame.c **** {
  18              		.loc 1 156 0
  19 0000 F0B5     		push	{r4, r5, r6, r7, lr}
  20              	.LCFI0:
  21              	.LVL0:
  22              		.loc 1 156 0
  23 0002 0E1C     		mov	r6, r1
  24 0004 171C     		mov	r7, r2
  25 0006 051C     		mov	r5, r0
  26 0008 0024     		mov	r4, #0
  27              	.LVL1:
  28 000a 2AE0     		b	.L2
  29              	.LVL2:
  30              	.L3:
 157:exampleGame.c ****   tS32 i,j;
 158:exampleGame.c **** 
 159:exampleGame.c ****   for (i=0; i<FIGURE_SIZE; i++)
 160:exampleGame.c ****     for (j=0; j<FIGURE_SIZE; j++)
 161:exampleGame.c ****       if((figures[shape][i][j] == 'X') &&
  31              		.loc 1 161 0
  32 000c 0B78     		ldrb	r3, [r1]
  33 000e 582B     		cmp	r3, #88
  34 0010 06D1     		bne	.L4
  35              	.LVL3:
  36 0012 0928     		cmp	r0, #9
  37 0014 23DC     		bgt	.L6
  38 0016 B318     		add	r3, r6, r2
  39 0018 0F2B     		cmp	r3, #15
  40 001a 20DC     		bgt	.L6
  41 001c 0028     		cmp	r0, #0
  42 001e 1EDB     		blt	.L6
  43              	.LVL4:
  44              	.L4:
  45              		.loc 1 160 0
  46 0020 0132     		add	r2, r2, #1
  47 0022 0131     		add	r1, r1, #1
  48 0024 042A     		cmp	r2, #4
  49 0026 F1D1     		bne	.L3
  50              		.loc 1 159 0
  51 0028 0134     		add	r4, r4, #1
  52              	.LVL5:
  53 002a 0130     		add	r0, r0, #1
  54 002c 042C     		cmp	r4, #4
  55 002e 1FD0     		beq	.L26
  56 0030 17E0     		b	.L2
  57              	.LVL6:
  58              	.L11:
 162:exampleGame.c ****          ((i+x >= BOARD_WIDTH) || (j+y >= BOARD_HEIGHT) || (i+x < 0)))
 163:exampleGame.c ****         return 0;
 164:exampleGame.c **** 
 165:exampleGame.c ****   for (i=0; i<FIGURE_SIZE; i++)
 166:exampleGame.c ****     for (j=0; j<FIGURE_SIZE; j++)
ARM GAS  /cygdrive/c/Users/embedded/AppData/Local/Temp/cc3JnFww.s 			page 5


 167:exampleGame.c ****       if((i+x < BOARD_WIDTH) &&
  59              		.loc 1 167 0
  60 0032 092D     		cmp	r5, #9
  61 0034 08DC     		bgt	.L12
  62 0036 B318     		add	r3, r6, r2
  63 0038 0F2B     		cmp	r3, #15
  64 003a 05DC     		bgt	.L12
  65 003c 0378     		ldrb	r3, [r0]
  66 003e 582B     		cmp	r3, #88
  67 0040 02D1     		bne	.L12
  68 0042 0B68     		ldr	r3, [r1]
  69 0044 002B     		cmp	r3, #0
  70 0046 0AD1     		bne	.L6
  71              	.L12:
  72              		.loc 1 166 0
  73 0048 0132     		add	r2, r2, #1
  74 004a 0130     		add	r0, r0, #1
  75 004c 0431     		add	r1, r1, #4
  76 004e 042A     		cmp	r2, #4
  77 0050 EFD1     		bne	.L11
  78              		.loc 1 165 0
  79 0052 0134     		add	r4, r4, #1
  80 0054 0135     		add	r5, r5, #1
  81 0056 042C     		cmp	r4, #4
  82 0058 0BD1     		bne	.L17
  83 005a 0120     		mov	r0, #1
  84 005c 15E0     		b	.L19
  85              	.LVL7:
  86              	.L6:
  87 005e 0020     		mov	r0, #0
  88 0060 13E0     		b	.L19
  89              	.LVL8:
  90              	.L2:
  91 0062 BB00     		lsl	r3, r7, #2
  92 0064 0A4A     		ldr	r2, .L29
  93              	.LVL9:
  94 0066 1B19     		add	r3, r3, r4
  95 0068 9B00     		lsl	r3, r3, #2
  96 006a 9918     		add	r1, r3, r2
  97 006c 0022     		mov	r2, #0
  98              	.LVL10:
  99 006e CDE7     		b	.L3
 100              	.LVL11:
 101              	.L26:
 102 0070 0024     		mov	r4, #0
 103              	.LVL12:
 104              	.L17:
 105 0072 BB00     		lsl	r3, r7, #2
 106 0074 064A     		ldr	r2, .L29
 107              	.LVL13:
 108 0076 1B19     		add	r3, r3, r4
 109 0078 9B00     		lsl	r3, r3, #2
 110 007a 9818     		add	r0, r3, r2
 111 007c 2B01     		lsl	r3, r5, #4
 112 007e 054A     		ldr	r2, .L29+4
 113 0080 9B19     		add	r3, r3, r6
 114 0082 9B00     		lsl	r3, r3, #2
ARM GAS  /cygdrive/c/Users/embedded/AppData/Local/Temp/cc3JnFww.s 			page 6


 115 0084 9918     		add	r1, r3, r2
 116 0086 0022     		mov	r2, #0
 117              	.LVL14:
 118 0088 D3E7     		b	.L11
 119              	.LVL15:
 120              	.L19:
 168:exampleGame.c ****          (j+y < BOARD_HEIGHT) &&
 169:exampleGame.c ****          (figures[shape][i][j] == 'X') &&
 170:exampleGame.c ****          (board[i+x][j+y] != 0))
 171:exampleGame.c ****         return 0;
 172:exampleGame.c **** 
 173:exampleGame.c ****   return 1;
 174:exampleGame.c **** }
 121              		.loc 1 174 0
 122              		@ sp needed for prologue
 123              	.LVL16:
 124              	.LVL17:
 125              	.LVL18:
 126 008a F0BC     		pop	{r4, r5, r6, r7}
 127 008c 02BC     		pop	{r1}
 128 008e 0847     		bx	r1
 129              	.L30:
 130              		.align	2
 131              	.L29:
 132 0090 00000000 		.word	figures
 133 0094 04000000 		.word	board
 134              	.LFE2:
 135              		.size	isValid, .-isValid
 136              		.align	2
 137              		.code 16
 138              		.thumb_func
 139              		.type	insertFigure, %function
 140              	insertFigure:
 141              	.LFB4:
 175:exampleGame.c **** 
 176:exampleGame.c **** 
 177:exampleGame.c **** /*****************************************************************************
 178:exampleGame.c ****  *
 179:exampleGame.c ****  * Description:
 180:exampleGame.c ****  *    Draw/refresh game board
 181:exampleGame.c ****  *
 182:exampleGame.c ****  ****************************************************************************/
 183:exampleGame.c **** static void
 184:exampleGame.c **** drawGame(void)
 185:exampleGame.c **** {
 186:exampleGame.c ****   tS32 i,j;
 187:exampleGame.c **** 
 188:exampleGame.c ****   for (i=1; i<=BOARD_WIDTH; i++)
 189:exampleGame.c ****     for (j=1; j<=BOARD_HEIGHT; j++)
 190:exampleGame.c ****       if(board[i-1][j-1] != 0)
 191:exampleGame.c ****         lcdRectBrd(30+(i*6), 10+(j*6), 6, 6, 209,50,5);
 192:exampleGame.c ****       else
 193:exampleGame.c ****         lcdRect(30+(i*6), 10+(j*6), 6, 6, 0);
 194:exampleGame.c **** }
 195:exampleGame.c **** 
 196:exampleGame.c **** 
 197:exampleGame.c **** /*****************************************************************************
ARM GAS  /cygdrive/c/Users/embedded/AppData/Local/Temp/cc3JnFww.s 			page 7


 198:exampleGame.c ****  *
 199:exampleGame.c ****  * Description:
 200:exampleGame.c ****  *    Insert one figure at a specific x,y position on the game board
 201:exampleGame.c ****  *
 202:exampleGame.c ****  ****************************************************************************/
 203:exampleGame.c **** static void
 204:exampleGame.c **** insertFigure(tS32 shape, tS32 x, tS32 y)
 205:exampleGame.c **** {
 142              		.loc 1 205 0
 143 0098 F0B5     		push	{r4, r5, r6, r7, lr}
 144              	.LCFI1:
 145              	.LVL19:
 146              		.loc 1 205 0
 147 009a 071C     		mov	r7, r0
 148 009c 0E1C     		mov	r6, r1
 149 009e 151C     		mov	r5, r2
 150 00a0 0024     		mov	r4, #0
 151              	.LVL20:
 152 00a2 0CE0     		b	.L32
 153              	.LVL21:
 154              	.L33:
 206:exampleGame.c ****   tS32 i,j;
 207:exampleGame.c ****   
 208:exampleGame.c ****   for (i=0; i<FIGURE_SIZE; i++)
 209:exampleGame.c ****     for (j=0; j<FIGURE_SIZE; j++)
 210:exampleGame.c ****       if(figures[shape][i][j] == 'X')
 155              		.loc 1 210 0
 156 00a4 0378     		ldrb	r3, [r0]
 157 00a6 582B     		cmp	r3, #88
 158 00a8 01D1     		bne	.L34
 211:exampleGame.c ****         board[x+i][y+j] = 1;
 159              		.loc 1 211 0
 160 00aa 0123     		mov	r3, #1
 161 00ac 0B60     		str	r3, [r1]
 162              	.L34:
 163              		.loc 1 209 0
 164 00ae 0132     		add	r2, r2, #1
 165 00b0 0130     		add	r0, r0, #1
 166 00b2 0431     		add	r1, r1, #4
 167 00b4 042A     		cmp	r2, #4
 168 00b6 F5D1     		bne	.L33
 169              		.loc 1 208 0
 170 00b8 0134     		add	r4, r4, #1
 171 00ba 042C     		cmp	r4, #4
 172 00bc 0CD0     		beq	.L38
 173              	.LVL22:
 174              	.L32:
 212:exampleGame.c **** }
 175              		.loc 1 212 0
 176 00be BB00     		lsl	r3, r7, #2
 177 00c0 074A     		ldr	r2, .L41
 178              	.LVL23:
 179 00c2 1B19     		add	r3, r3, r4
 180 00c4 9B00     		lsl	r3, r3, #2
 181 00c6 9818     		add	r0, r3, r2
 182 00c8 3319     		add	r3, r6, r4
 183 00ca 1B01     		lsl	r3, r3, #4
ARM GAS  /cygdrive/c/Users/embedded/AppData/Local/Temp/cc3JnFww.s 			page 8


 184 00cc 054A     		ldr	r2, .L41+4
 185 00ce 5B19     		add	r3, r3, r5
 186 00d0 9B00     		lsl	r3, r3, #2
 187 00d2 9918     		add	r1, r3, r2
 188 00d4 0022     		mov	r2, #0
 189              	.LVL24:
 190 00d6 E5E7     		b	.L33
 191              	.L38:
 192              		@ sp needed for prologue
 193              	.LVL25:
 194              	.LVL26:
 195              	.LVL27:
 196              	.LVL28:
 197 00d8 F0BC     		pop	{r4, r5, r6, r7}
 198 00da 01BC     		pop	{r0}
 199 00dc 0047     		bx	r0
 200              	.L42:
 201 00de 0000     		.align	2
 202              	.L41:
 203 00e0 00000000 		.word	figures
 204 00e4 04000000 		.word	board
 205              	.LFE4:
 206              		.size	insertFigure, .-insertFigure
 207              		.global	__modsi3
 208              		.global	__udivsi3
 209              		.global	__umodsi3
 210              		.align	2
 211              		.code 16
 212              		.thumb_func
 213              		.type	advanceGame, %function
 214              	advanceGame:
 215              	.LFB11:
 213:exampleGame.c **** 
 214:exampleGame.c **** 
 215:exampleGame.c **** /*****************************************************************************
 216:exampleGame.c ****  *
 217:exampleGame.c ****  * Description:
 218:exampleGame.c ****  *    Delete one figure at a specific x,y position on the game board
 219:exampleGame.c ****  *
 220:exampleGame.c ****  ****************************************************************************/
 221:exampleGame.c **** static void
 222:exampleGame.c **** deleteFigure(tS32 shape, tS32 x, tS32 y)
 223:exampleGame.c **** {
 224:exampleGame.c ****   tS32 i,j;
 225:exampleGame.c ****   
 226:exampleGame.c ****   for (i=0; i<FIGURE_SIZE; i++)
 227:exampleGame.c ****     for (j=0; j<FIGURE_SIZE; j++)
 228:exampleGame.c ****       if(figures[shape][i][j] == 'X')
 229:exampleGame.c ****         board[x+i][y+j] = 0;
 230:exampleGame.c **** }
 231:exampleGame.c **** 
 232:exampleGame.c **** 
 233:exampleGame.c **** /*****************************************************************************
 234:exampleGame.c ****  *
 235:exampleGame.c ****  * Description:
 236:exampleGame.c ****  *    Returns TRUE if one row of the board is full
 237:exampleGame.c ****  *
ARM GAS  /cygdrive/c/Users/embedded/AppData/Local/Temp/cc3JnFww.s 			page 9


 238:exampleGame.c ****  ****************************************************************************/
 239:exampleGame.c **** static char
 240:exampleGame.c **** full(tS32 j)
 241:exampleGame.c **** {
 242:exampleGame.c ****   tS32 i;
 243:exampleGame.c ****   
 244:exampleGame.c ****   for(i=0; i<BOARD_WIDTH; i++)
 245:exampleGame.c ****     if(board[i][j] != 1)
 246:exampleGame.c ****       return 0;
 247:exampleGame.c **** 
 248:exampleGame.c ****   return 1;
 249:exampleGame.c **** }
 250:exampleGame.c **** 
 251:exampleGame.c **** 
 252:exampleGame.c **** /*****************************************************************************
 253:exampleGame.c ****  *
 254:exampleGame.c ****  * Description:
 255:exampleGame.c ****  *    Draw the current score
 256:exampleGame.c ****  *
 257:exampleGame.c ****  ****************************************************************************/
 258:exampleGame.c **** static void
 259:exampleGame.c **** drawScore(void)
 260:exampleGame.c **** {
 261:exampleGame.c ****   tU8 str[4];
 262:exampleGame.c ****   
 263:exampleGame.c ****   str[0] = score/100 + '0';
 264:exampleGame.c ****   str[1] = (score/10)%10 + '0';
 265:exampleGame.c ****   str[2] = score%10 + '0';
 266:exampleGame.c ****   str[3] = 0;
 267:exampleGame.c ****   if (str[0] == '0')
 268:exampleGame.c ****   {
 269:exampleGame.c ****     str[0] = ' ';
 270:exampleGame.c ****     if (str[1] == '0')
 271:exampleGame.c ****       str[1] = ' ';
 272:exampleGame.c ****   }
 273:exampleGame.c ****   lcdGotoxy(80,116);
 274:exampleGame.c ****   lcdPuts(str);
 275:exampleGame.c **** }
 276:exampleGame.c **** 
 277:exampleGame.c **** 
 278:exampleGame.c **** /*****************************************************************************
 279:exampleGame.c ****  *
 280:exampleGame.c ****  * Description:
 281:exampleGame.c ****  *    Check if time to update score
 282:exampleGame.c ****  *
 283:exampleGame.c ****  ****************************************************************************/
 284:exampleGame.c **** static void
 285:exampleGame.c **** checkScore(void)
 286:exampleGame.c **** {
 287:exampleGame.c ****   tS32 i,j,k;
 288:exampleGame.c ****   
 289:exampleGame.c ****   for (j=0; j<BOARD_HEIGHT; j++)
 290:exampleGame.c ****   {
 291:exampleGame.c ****     //check if one row is full
 292:exampleGame.c ****     if(full(j))
 293:exampleGame.c ****     {
 294:exampleGame.c ****       //if so, erase that row...
ARM GAS  /cygdrive/c/Users/embedded/AppData/Local/Temp/cc3JnFww.s 			page 10


 295:exampleGame.c ****       for(k=j; k>0; k--)
 296:exampleGame.c ****         for(i=0; i<BOARD_WIDTH; i++)
 297:exampleGame.c ****           board[i][k] = board[i][k-1];
 298:exampleGame.c ****           
 299:exampleGame.c ****       //and update score
 300:exampleGame.c ****       score++;
 301:exampleGame.c ****       drawScore();
 302:exampleGame.c ****     }
 303:exampleGame.c ****   }
 304:exampleGame.c **** }
 305:exampleGame.c **** 
 306:exampleGame.c **** 
 307:exampleGame.c **** /*****************************************************************************
 308:exampleGame.c ****  *
 309:exampleGame.c ****  * Description:
 310:exampleGame.c ****  *    Returns TRUE if game is over
 311:exampleGame.c ****  *
 312:exampleGame.c ****  ****************************************************************************/
 313:exampleGame.c **** static char
 314:exampleGame.c **** gameOver(void)
 315:exampleGame.c **** {
 316:exampleGame.c ****   tS32 i;
 317:exampleGame.c **** 
 318:exampleGame.c ****   for(i=0; i<NUM_OF_FIGURE; i++)
 319:exampleGame.c ****     if(!isValid(3,0,i))
 320:exampleGame.c ****       return 1;
 321:exampleGame.c **** 
 322:exampleGame.c ****   return 0;
 323:exampleGame.c **** }
 324:exampleGame.c **** 
 325:exampleGame.c **** 
 326:exampleGame.c **** /*****************************************************************************
 327:exampleGame.c ****  *
 328:exampleGame.c ****  * Description:
 329:exampleGame.c ****  *    Calculate new update/advance time, based in current score
 330:exampleGame.c ****  *    The higher score, the shorter update time
 331:exampleGame.c ****  *
 332:exampleGame.c ****  ****************************************************************************/
 333:exampleGame.c **** static void
 334:exampleGame.c **** updateDelayTime(void)
 335:exampleGame.c **** {
 336:exampleGame.c ****   if (score >= 75)
 337:exampleGame.c ****     delayTimeMs = 200;
 338:exampleGame.c ****   else if (score >= 50)
 339:exampleGame.c ****     delayTimeMs = 300;
 340:exampleGame.c ****   else if (score >= 25)
 341:exampleGame.c ****     delayTimeMs = 350;
 342:exampleGame.c ****   else if (score >= 10)
 343:exampleGame.c ****     delayTimeMs = 400;
 344:exampleGame.c ****   else
 345:exampleGame.c ****     delayTimeMs = 500;
 346:exampleGame.c **** }
 347:exampleGame.c **** 
 348:exampleGame.c **** 
 349:exampleGame.c **** /*****************************************************************************
 350:exampleGame.c ****  *
 351:exampleGame.c ****  * Description:
ARM GAS  /cygdrive/c/Users/embedded/AppData/Local/Temp/cc3JnFww.s 			page 11


 352:exampleGame.c ****  *    Advance the game, check if game is over
 353:exampleGame.c ****  *
 354:exampleGame.c ****  ****************************************************************************/
 355:exampleGame.c **** static void
 356:exampleGame.c **** advanceGame(void)
 357:exampleGame.c **** {
 216              		.loc 1 357 0
 217 00e8 F0B5     		push	{r4, r5, r6, r7, lr}
 218              	.LCFI2:
 358:exampleGame.c ****   insertFigure(currFigure, currXpos, currYpos);
 219              		.loc 1 358 0
 220 00ea 804B     		ldr	r3, .L104
 221 00ec 1868     		ldr	r0, [r3]
 222 00ee 804B     		ldr	r3, .L104+4
 223 00f0 1968     		ldr	r1, [r3]
 224 00f2 804B     		ldr	r3, .L104+8
 225              		.loc 1 357 0
 226 00f4 86B0     		sub	sp, sp, #24
 227              	.LCFI3:
 228              		.loc 1 358 0
 229 00f6 1A68     		ldr	r2, [r3]
 230 00f8 FFF7CEFF 		bl	insertFigure
 231 00fc 0027     		mov	r7, #0
 232 00fe 2426     		mov	r6, #36
 233 0100 D6E0     		b	.L44
 234              	.L45:
 235              	.LBB16:
 236              	.LBB17:
 237              		.loc 1 190 0
 238 0102 2B68     		ldr	r3, [r5]
 239 0104 002B     		cmp	r3, #0
 240 0106 0CD0     		beq	.L46
 241              		.loc 1 191 0
 242 0108 D123     		mov	r3, #209
 243 010a 0093     		str	r3, [sp]
 244 010c 3223     		mov	r3, #50
 245 010e 0193     		str	r3, [sp, #4]
 246 0110 0523     		mov	r3, #5
 247 0112 0293     		str	r3, [sp, #8]
 248 0114 301C     		mov	r0, r6
 249 0116 211C     		mov	r1, r4
 250 0118 0622     		mov	r2, #6
 251 011a 0623     		mov	r3, #6
 252 011c FFF7FEFF 		bl	lcdRectBrd
 253 0120 06E0     		b	.L48
 254              	.L46:
 255              		.loc 1 193 0
 256 0122 0093     		str	r3, [sp]
 257 0124 301C     		mov	r0, r6
 258 0126 211C     		mov	r1, r4
 259 0128 0622     		mov	r2, #6
 260 012a 0623     		mov	r3, #6
 261 012c FFF7FEFF 		bl	lcdRect
 262              	.L48:
 263 0130 0634     		add	r4, r4, #6
 264 0132 0435     		add	r5, r5, #4
 265              		.loc 1 189 0
ARM GAS  /cygdrive/c/Users/embedded/AppData/Local/Temp/cc3JnFww.s 			page 12


 266 0134 702C     		cmp	r4, #112
 267 0136 E4D1     		bne	.L45
 268 0138 0137     		add	r7, r7, #1
 269 013a 0636     		add	r6, r6, #6
 270              		.loc 1 188 0
 271 013c 0A2F     		cmp	r7, #10
 272 013e 00D0     		beq	.LCB304
 273 0140 B6E0     		b	.L44	@long jump
 274              	.LCB304:
 275              	.LBE17:
 276              	.LBE16:
 359:exampleGame.c ****   drawGame();
 360:exampleGame.c ****   deleteFigure(currFigure, currXpos, currYpos);
 277              		.loc 1 360 0
 278 0142 6A4B     		ldr	r3, .L104
 279 0144 1B68     		ldr	r3, [r3]
 280 0146 0493     		str	r3, [sp, #16]
 281 0148 694B     		ldr	r3, .L104+4
 282 014a 1B68     		ldr	r3, [r3]
 283 014c 0393     		str	r3, [sp, #12]
 284 014e 694B     		ldr	r3, .L104+8
 285 0150 1F68     		ldr	r7, [r3]
 286 0152 0024     		mov	r4, #0
 287              	.LVL29:
 288 0154 B1E0     		b	.L51
 289              	.LVL30:
 290              	.L52:
 291              	.LBB18:
 292              	.LBB19:
 293              		.loc 1 228 0
 294 0156 0378     		ldrb	r3, [r0]
 295 0158 582B     		cmp	r3, #88
 296 015a 01D1     		bne	.L53
 297              		.loc 1 229 0
 298 015c 0023     		mov	r3, #0
 299 015e 0B60     		str	r3, [r1]
 300              	.L53:
 301              		.loc 1 227 0
 302 0160 0132     		add	r2, r2, #1
 303 0162 0130     		add	r0, r0, #1
 304 0164 0431     		add	r1, r1, #4
 305 0166 042A     		cmp	r2, #4
 306 0168 F5D1     		bne	.L52
 307              		.loc 1 226 0
 308 016a 0134     		add	r4, r4, #1
 309 016c 042C     		cmp	r4, #4
 310 016e 00D0     		beq	.LCB345
 311 0170 A3E0     		b	.L51	@long jump
 312              	.LCB345:
 313              	.LBE19:
 314              	.LBE18:
 315              	.LBB20:
 316              	.LBB21:
 317              		.loc 1 336 0
 318 0172 614B     		ldr	r3, .L104+12
 319 0174 1B78     		ldrb	r3, [r3]
 320 0176 4A2B     		cmp	r3, #74
ARM GAS  /cygdrive/c/Users/embedded/AppData/Local/Temp/cc3JnFww.s 			page 13


 321 0178 02D9     		bls	.L57
 322              		.loc 1 337 0
 323 017a 604A     		ldr	r2, .L104+16
 324              	.LVL31:
 325 017c C823     		mov	r3, #200
 326 017e 10E0     		b	.L102
 327              	.LVL32:
 328              	.L57:
 329              		.loc 1 338 0
 330 0180 312B     		cmp	r3, #49
 331 0182 02D9     		bls	.L60
 332              		.loc 1 339 0
 333 0184 5D4A     		ldr	r2, .L104+16
 334              	.LVL33:
 335 0186 9623     		mov	r3, #150
 336 0188 0AE0     		b	.L103
 337              	.LVL34:
 338              	.L60:
 339              		.loc 1 340 0
 340 018a 182B     		cmp	r3, #24
 341 018c 02D9     		bls	.L62
 342              		.loc 1 341 0
 343 018e 5B4A     		ldr	r2, .L104+16
 344              	.LVL35:
 345 0190 AF23     		mov	r3, #175
 346 0192 05E0     		b	.L103
 347              	.LVL36:
 348              	.L62:
 349 0194 594A     		ldr	r2, .L104+16
 350              	.LVL37:
 351              		.loc 1 342 0
 352 0196 092B     		cmp	r3, #9
 353 0198 01D9     		bls	.L64
 354              		.loc 1 343 0
 355 019a C823     		mov	r3, #200
 356 019c 00E0     		b	.L103
 357              	.L64:
 358              		.loc 1 345 0
 359 019e FA23     		mov	r3, #250
 360              	.L103:
 361 01a0 5B00     		lsl	r3, r3, #1
 362              	.L102:
 363 01a2 1360     		str	r3, [r2]
 364              	.LBE21:
 365              	.LBE20:
 361:exampleGame.c **** 
 362:exampleGame.c ****   /*******************************************************
 363:exampleGame.c ****    * Check if time to update figure position
 364:exampleGame.c ****    *******************************************************/
 365:exampleGame.c ****   updateDelayTime();
 366:exampleGame.c ****   if ((ms - lastUpdate) > delayTimeMs)
 366              		.loc 1 366 0
 367 01a4 564C     		ldr	r4, .L104+20
 368              	.LVL38:
 369 01a6 5748     		ldr	r0, .L104+24
 370 01a8 544B     		ldr	r3, .L104+16
 371 01aa 2268     		ldr	r2, [r4]
ARM GAS  /cygdrive/c/Users/embedded/AppData/Local/Temp/cc3JnFww.s 			page 14


 372 01ac 0168     		ldr	r1, [r0]
 373 01ae 1B68     		ldr	r3, [r3]
 374 01b0 521A     		sub	r2, r2, r1
 375 01b2 9A42     		cmp	r2, r3
 376 01b4 00D8     		bhi	.LCB419
 377 01b6 94E0     		b	.L87	@long jump
 378              	.LCB419:
 367:exampleGame.c ****   {
 368:exampleGame.c ****     lastUpdate = ms;
 379              		.loc 1 368 0
 380 01b8 2368     		ldr	r3, [r4]
 369:exampleGame.c ****     
 370:exampleGame.c ****     if (isValid(currXpos, currYpos+1, currFigure))
 381              		.loc 1 370 0
 382 01ba 7E1C     		add	r6, r7, #1
 383              		.loc 1 368 0
 384 01bc 0360     		str	r3, [r0]
 385              		.loc 1 370 0
 386 01be 311C     		mov	r1, r6
 387 01c0 0398     		ldr	r0, [sp, #12]
 388 01c2 049A     		ldr	r2, [sp, #16]
 389 01c4 FFF71CFF 		bl	isValid
 390 01c8 0006     		lsl	r0, r0, #24
 391 01ca 040E     		lsr	r4, r0, #24
 392 01cc 494D     		ldr	r5, .L104+8
 393 01ce 002C     		cmp	r4, #0
 394 01d0 01D0     		beq	.L68
 371:exampleGame.c ****       currYpos++;
 395              		.loc 1 371 0
 396 01d2 2E60     		str	r6, [r5]
 397 01d4 1FE0     		b	.L70
 398              	.L68:
 372:exampleGame.c **** 
 373:exampleGame.c ****     //figure has hit bottom
 374:exampleGame.c ****     //insert new, random figure on the game board
 375:exampleGame.c ****     else
 376:exampleGame.c ****     {
 377:exampleGame.c ****       insertFigure(currFigure, currXpos, currYpos);
 399              		.loc 1 377 0
 400 01d6 0399     		ldr	r1, [sp, #12]
 401 01d8 0498     		ldr	r0, [sp, #16]
 402 01da 3A1C     		mov	r2, r7
 403 01dc FFF75CFF 		bl	insertFigure
 378:exampleGame.c ****       currYpos  = 0;
 379:exampleGame.c ****       currXpos  = 3;
 404              		.loc 1 379 0
 405 01e0 434A     		ldr	r2, .L104+4
 406 01e2 0323     		mov	r3, #3
 407              		.loc 1 378 0
 408 01e4 2C60     		str	r4, [r5]
 409              		.loc 1 379 0
 410 01e6 1360     		str	r3, [r2]
 380:exampleGame.c ****       currFigure = rand() % NUM_OF_FIGURE;
 411              		.loc 1 380 0
 412 01e8 FFF7FEFF 		bl	rand
 413 01ec 1321     		mov	r1, #19
 414 01ee FFF7FEFF 		bl	__modsi3
ARM GAS  /cygdrive/c/Users/embedded/AppData/Local/Temp/cc3JnFww.s 			page 15


 415 01f2 3E4C     		ldr	r4, .L104
 416 01f4 2060     		str	r0, [r4]
 417 01f6 0024     		mov	r4, #0
 418              	.LVL39:
 419              	.L71:
 420              	.LBB22:
 421              		.loc 1 319 0
 422 01f8 0320     		mov	r0, #3
 423 01fa 0021     		mov	r1, #0
 424 01fc 221C     		mov	r2, r4
 425 01fe FFF7FFFE 		bl	isValid
 426 0202 0006     		lsl	r0, r0, #24
 427              	.LBB23:
 428 0204 0028     		cmp	r0, #0
 429 0206 03D0     		beq	.L72
 430              		.loc 1 318 0
 431 0208 0134     		add	r4, r4, #1
 432 020a 132C     		cmp	r4, #19
 433 020c 03D0     		beq	.L70
 434 020e F3E7     		b	.L71
 435              	.L72:
 436              	.LBE23:
 437              	.LBE22:
 381:exampleGame.c **** 
 382:exampleGame.c ****       //check if game is over
 383:exampleGame.c ****       if (gameOver())
 384:exampleGame.c ****         gameStatus = GAME_OVER;
 438              		.loc 1 384 0
 439 0210 3D4A     		ldr	r2, .L104+28
 440 0212 0223     		mov	r3, #2
 441 0214 1370     		strb	r3, [r2]
 442              	.L70:
 443 0216 0026     		mov	r6, #0
 444              	.LVL40:
 445 0218 5EE0     		b	.L74
 446              	.LVL41:
 447              	.L75:
 448              	.LBB24:
 449              	.LBB25:
 450              	.LBB26:
 451              	.LBB27:
 452              		.loc 1 245 0
 453 021a 1368     		ldr	r3, [r2]
 454 021c 012B     		cmp	r3, #1
 455 021e 43D1     		bne	.L76
 456              		.loc 1 244 0
 457 0220 0131     		add	r1, r1, #1
 458 0222 4032     		add	r2, r2, #64
 459 0224 0A29     		cmp	r1, #10
 460 0226 F8D1     		bne	.L75
 461 0228 701E     		sub	r0, r6, #1
 462 022a 06E0     		b	.L79
 463              	.LVL42:
 464              	.L80:
 465              	.LBE27:
 466              	.LBE26:
 467              		.loc 1 297 0
ARM GAS  /cygdrive/c/Users/embedded/AppData/Local/Temp/cc3JnFww.s 			page 16


 468 022c 1368     		ldr	r3, [r2]
 469              		.loc 1 296 0
 470 022e 0131     		add	r1, r1, #1
 471              		.loc 1 297 0
 472 0230 5360     		str	r3, [r2, #4]
 473              		.loc 1 296 0
 474 0232 4032     		add	r2, r2, #64
 475 0234 0A29     		cmp	r1, #10
 476 0236 F9D1     		bne	.L80
 477 0238 0138     		sub	r0, r0, #1
 478              	.LVL43:
 479              	.L79:
 480              		.loc 1 295 0
 481 023a 421C     		add	r2, r0, #1
 482 023c 04D0     		beq	.L82
 483 023e 334B     		ldr	r3, .L104+32
 484 0240 8200     		lsl	r2, r0, #2
 485 0242 D218     		add	r2, r2, r3
 486 0244 0021     		mov	r1, #0
 487              	.LVL44:
 488 0246 F1E7     		b	.L80
 489              	.LVL45:
 490              	.L82:
 491              		.loc 1 300 0
 492 0248 2B4B     		ldr	r3, .L104+12
 493 024a 1C78     		ldrb	r4, [r3]
 494              	.LVL46:
 495 024c 0134     		add	r4, r4, #1
 496 024e 2406     		lsl	r4, r4, #24
 497 0250 240E     		lsr	r4, r4, #24
 498 0252 1C70     		strb	r4, [r3]
 499              	.LBB28:
 500              	.LBB29:
 501              		.loc 1 263 0
 502 0254 6421     		mov	r1, #100
 503              	.LVL47:
 504 0256 201C     		mov	r0, r4
 505 0258 FFF7FEFF 		bl	__udivsi3
 506 025c 05AD     		add	r5, sp, #20
 507 025e 3030     		add	r0, r0, #48
 508 0260 2870     		strb	r0, [r5]
 509              		.loc 1 264 0
 510 0262 0A21     		mov	r1, #10
 511 0264 201C     		mov	r0, r4
 512 0266 FFF7FEFF 		bl	__udivsi3
 513 026a 0006     		lsl	r0, r0, #24
 514 026c 0A21     		mov	r1, #10
 515 026e 000E     		lsr	r0, r0, #24
 516 0270 FFF7FEFF 		bl	__umodsi3
 517 0274 3030     		add	r0, r0, #48
 518 0276 6870     		strb	r0, [r5, #1]
 519              		.loc 1 265 0
 520 0278 0A21     		mov	r1, #10
 521 027a 201C     		mov	r0, r4
 522 027c FFF7FEFF 		bl	__umodsi3
 523              		.loc 1 266 0
 524 0280 0023     		mov	r3, #0
ARM GAS  /cygdrive/c/Users/embedded/AppData/Local/Temp/cc3JnFww.s 			page 17


 525 0282 EB70     		strb	r3, [r5, #3]
 526              		.loc 1 267 0
 527 0284 2B78     		ldrb	r3, [r5]
 528              		.loc 1 265 0
 529 0286 3030     		add	r0, r0, #48
 530 0288 A870     		strb	r0, [r5, #2]
 531              		.loc 1 267 0
 532 028a 302B     		cmp	r3, #48
 533 028c 05D1     		bne	.L84
 534              		.loc 1 270 0
 535 028e 6B78     		ldrb	r3, [r5, #1]
 536              		.loc 1 269 0
 537 0290 2022     		mov	r2, #32
 538 0292 2A70     		strb	r2, [r5]
 539              		.loc 1 270 0
 540 0294 302B     		cmp	r3, #48
 541 0296 00D1     		bne	.L84
 542              		.loc 1 271 0
 543 0298 6A70     		strb	r2, [r5, #1]
 544              	.L84:
 545              		.loc 1 273 0
 546 029a 5020     		mov	r0, #80
 547 029c 7421     		mov	r1, #116
 548 029e FFF7FEFF 		bl	lcdGotoxy
 549              		.loc 1 274 0
 550 02a2 05A8     		add	r0, sp, #20
 551 02a4 FFF7FEFF 		bl	lcdPuts
 552              	.LVL48:
 553              	.L76:
 554              	.LBE29:
 555              	.LBE28:
 556              		.loc 1 289 0
 557 02a8 0136     		add	r6, r6, #1
 558 02aa 102E     		cmp	r6, #16
 559 02ac 19D0     		beq	.L87
 560 02ae 13E0     		b	.L74
 561              	.LVL49:
 562              	.L44:
 385:exampleGame.c ****     }
 386:exampleGame.c **** 
 387:exampleGame.c ****     //check score, i.e., if any rows are full
 388:exampleGame.c ****     checkScore();
 389:exampleGame.c ****   }
 390:exampleGame.c **** }
 563              		.loc 1 390 0
 564 02b0 164B     		ldr	r3, .L104+32
 565 02b2 BA01     		lsl	r2, r7, #6
 566 02b4 D518     		add	r5, r2, r3
 567 02b6 1024     		mov	r4, #16
 568 02b8 23E7     		b	.L45
 569              	.LVL50:
 570              	.L51:
 571 02ba 049A     		ldr	r2, [sp, #16]
 572              	.LVL51:
 573 02bc 9300     		lsl	r3, r2, #2
 574 02be 1B19     		add	r3, r3, r4
 575 02c0 134A     		ldr	r2, .L104+36
ARM GAS  /cygdrive/c/Users/embedded/AppData/Local/Temp/cc3JnFww.s 			page 18


 576 02c2 9B00     		lsl	r3, r3, #2
 577 02c4 9818     		add	r0, r3, r2
 578 02c6 039A     		ldr	r2, [sp, #12]
 579 02c8 1319     		add	r3, r2, r4
 580 02ca 1B01     		lsl	r3, r3, #4
 581 02cc 0F4A     		ldr	r2, .L104+32
 582 02ce DB19     		add	r3, r3, r7
 583 02d0 9B00     		lsl	r3, r3, #2
 584 02d2 9918     		add	r1, r3, r2
 585 02d4 0022     		mov	r2, #0
 586              	.LVL52:
 587 02d6 3EE7     		b	.L52
 588              	.LVL53:
 589              	.L74:
 590 02d8 0C4B     		ldr	r3, .L104+32
 591 02da B200     		lsl	r2, r6, #2
 592 02dc D218     		add	r2, r2, r3
 593 02de 0021     		mov	r1, #0
 594 02e0 9BE7     		b	.L75
 595              	.L87:
 596              	.LBE25:
 597              	.LBE24:
 598 02e2 06B0     		add	sp, sp, #24
 599              		@ sp needed for prologue
 600              	.LVL54:
 601              	.LVL55:
 602 02e4 F0BC     		pop	{r4, r5, r6, r7}
 603 02e6 01BC     		pop	{r0}
 604 02e8 0047     		bx	r0
 605              	.L105:
 606 02ea 0000     		.align	2
 607              	.L104:
 608 02ec 84020000 		.word	currFigure
 609 02f0 88020000 		.word	currXpos
 610 02f4 8C020000 		.word	currYpos
 611 02f8 01000000 		.word	score
 612 02fc 94020000 		.word	delayTimeMs
 613 0300 00000000 		.word	ms
 614 0304 90020000 		.word	lastUpdate
 615 0308 00000000 		.word	gameStatus
 616 030c 04000000 		.word	board
 617 0310 00000000 		.word	figures
 618              	.LFE11:
 619              		.size	advanceGame, .-advanceGame
 620              		.section	.rodata.str1.4,"aMS",%progbits,1
 621              		.align	2
 622              	.LC16:
 623 0000 2053636F 		.ascii	" Score:   0 \000"
 623      72653A20 
 623      20203020 
 623      00
 624              		.text
 625              		.align	2
 626              		.code 16
 627              		.thumb_func
 628              		.type	setupGame, %function
 629              	setupGame:
ARM GAS  /cygdrive/c/Users/embedded/AppData/Local/Temp/cc3JnFww.s 			page 19


 630              	.LFB12:
 391:exampleGame.c **** 
 392:exampleGame.c **** 
 393:exampleGame.c **** /*****************************************************************************
 394:exampleGame.c ****  *
 395:exampleGame.c ****  * Description:
 396:exampleGame.c ****  *    Draw game background and game board, initialize all variables
 397:exampleGame.c ****  *
 398:exampleGame.c ****  ****************************************************************************/
 399:exampleGame.c **** static void
 400:exampleGame.c **** setupGame (tBool drawBoard)
 401:exampleGame.c **** {
 631              		.loc 1 401 0
 632 0314 30B5     		push	{r4, r5, lr}
 633              	.LCFI4:
 634              	.LVL56:
 402:exampleGame.c ****   tS32 i,j;
 403:exampleGame.c **** 
 404:exampleGame.c ****   //initialize random generator and reset score
 405:exampleGame.c ****   srand(ms);
 635              		.loc 1 405 0
 636 0316 264B     		ldr	r3, .L117
 637              		.loc 1 401 0
 638 0318 0406     		lsl	r4, r0, #24
 639 031a 81B0     		sub	sp, sp, #4
 640              	.LCFI5:
 641              		.loc 1 405 0
 642 031c 1868     		ldr	r0, [r3]
 643              	.LVL57:
 644 031e FFF7FEFF 		bl	srand
 406:exampleGame.c ****   score = 0;
 645              		.loc 1 406 0
 646 0322 244B     		ldr	r3, .L117+4
 647 0324 0025     		mov	r5, #0
 648              		.loc 1 401 0
 649 0326 240E     		lsr	r4, r4, #24
 650              	.LVL58:
 651              		.loc 1 406 0
 652 0328 1D70     		strb	r5, [r3]
 407:exampleGame.c **** 
 408:exampleGame.c ****   //draw game board
 409:exampleGame.c ****   if (drawBoard == TRUE)
 653              		.loc 1 409 0
 654 032a 012C     		cmp	r4, #1
 655 032c 19D1     		bne	.L107
 410:exampleGame.c ****   {
 411:exampleGame.c ****     lcdColor(1, 0xe0);
 656              		.loc 1 411 0
 657 032e 0120     		mov	r0, #1
 658 0330 E021     		mov	r1, #224
 659 0332 FFF7FEFF 		bl	lcdColor
 412:exampleGame.c ****     lcdGotoxy(16, 116);
 660              		.loc 1 412 0
 661 0336 7421     		mov	r1, #116
 662 0338 1020     		mov	r0, #16
 663 033a FFF7FEFF 		bl	lcdGotoxy
 413:exampleGame.c ****     lcdPuts(" Score:   0 ");
ARM GAS  /cygdrive/c/Users/embedded/AppData/Local/Temp/cc3JnFww.s 			page 20


 664              		.loc 1 413 0
 665 033e 1E48     		ldr	r0, .L117+8
 666 0340 FFF7FEFF 		bl	lcdPuts
 414:exampleGame.c **** 
 415:exampleGame.c ****     lcdRect(34, 14, 64, 100, 3);
 667              		.loc 1 415 0
 668 0344 0323     		mov	r3, #3
 669 0346 0093     		str	r3, [sp]
 670 0348 2220     		mov	r0, #34
 671 034a 0E21     		mov	r1, #14
 672 034c 4022     		mov	r2, #64
 673 034e 6423     		mov	r3, #100
 674 0350 FFF7FEFF 		bl	lcdRect
 416:exampleGame.c ****     lcdRect(36, 16, 60, 96, 0);
 675              		.loc 1 416 0
 676 0354 2420     		mov	r0, #36
 677 0356 1021     		mov	r1, #16
 678 0358 3C22     		mov	r2, #60
 679 035a 6023     		mov	r3, #96
 680 035c 0095     		str	r5, [sp]
 681 035e FFF7FEFF 		bl	lcdRect
 682              	.L107:
 683 0362 0021     		mov	r1, #0
 684              	.LVL59:
 685 0364 1FE0     		b	.L109
 686              	.LVL60:
 687              	.L114:
 417:exampleGame.c ****   }
 418:exampleGame.c **** 
 419:exampleGame.c ****   //initialise game board
 420:exampleGame.c ****   for (i=0; i<BOARD_WIDTH; i++)
 421:exampleGame.c ****     for (j=0; j<BOARD_HEIGHT; j++)
 422:exampleGame.c ****       board[i][j] = 0;
 423:exampleGame.c **** 
 424:exampleGame.c ****   currFigure = rand() % NUM_OF_FIGURE;
 688              		.loc 1 424 0
 689 0366 FFF7FEFF 		bl	rand
 690              	.LVL61:
 691 036a 1321     		mov	r1, #19
 692 036c FFF7FEFF 		bl	__modsi3
 693 0370 124B     		ldr	r3, .L117+12
 425:exampleGame.c ****   currXpos  = 3;
 694              		.loc 1 425 0
 695 0372 134A     		ldr	r2, .L117+16
 696              		.loc 1 424 0
 697 0374 1860     		str	r0, [r3]
 698              		.loc 1 425 0
 699 0376 0323     		mov	r3, #3
 700 0378 1360     		str	r3, [r2]
 426:exampleGame.c ****   currYpos  = 0;
 701              		.loc 1 426 0
 702 037a 124B     		ldr	r3, .L117+20
 427:exampleGame.c ****   insertFigure(currFigure, currXpos, currYpos);
 703              		.loc 1 427 0
 704 037c 0321     		mov	r1, #3
 705              		.loc 1 426 0
 706 037e 1C60     		str	r4, [r3]
ARM GAS  /cygdrive/c/Users/embedded/AppData/Local/Temp/cc3JnFww.s 			page 21


 707              		.loc 1 427 0
 708 0380 0022     		mov	r2, #0
 709 0382 FFF789FE 		bl	insertFigure
 428:exampleGame.c **** 
 429:exampleGame.c ****   lastUpdate = ms;
 710              		.loc 1 429 0
 711 0386 0A4B     		ldr	r3, .L117
 712 0388 1A68     		ldr	r2, [r3]
 713 038a 0F4B     		ldr	r3, .L117+24
 430:exampleGame.c **** }
 714              		.loc 1 430 0
 715 038c 01B0     		add	sp, sp, #4
 716              		.loc 1 429 0
 717 038e 1A60     		str	r2, [r3]
 718              		.loc 1 430 0
 719              		@ sp needed for prologue
 720 0390 30BC     		pop	{r4, r5}
 721 0392 01BC     		pop	{r0}
 722 0394 0047     		bx	r0
 723              	.LVL62:
 724              	.L110:
 725              		.loc 1 422 0
 726 0396 0024     		mov	r4, #0
 727              	.LVL63:
 728              		.loc 1 421 0
 729 0398 0133     		add	r3, r3, #1
 730              		.loc 1 422 0
 731 039a 10C2     		stmia	r2!, {r4}
 732              		.loc 1 421 0
 733 039c 102B     		cmp	r3, #16
 734 039e FAD1     		bne	.L110
 735              		.loc 1 420 0
 736 03a0 0131     		add	r1, r1, #1
 737 03a2 0A29     		cmp	r1, #10
 738 03a4 DFD0     		beq	.L114
 739              	.LVL64:
 740              	.L109:
 741              		.loc 1 430 0
 742 03a6 094B     		ldr	r3, .L117+28
 743              	.LVL65:
 744 03a8 8A01     		lsl	r2, r1, #6
 745 03aa D218     		add	r2, r2, r3
 746 03ac 0023     		mov	r3, #0
 747              	.LVL66:
 748 03ae F2E7     		b	.L110
 749              	.L118:
 750              		.align	2
 751              	.L117:
 752 03b0 00000000 		.word	ms
 753 03b4 01000000 		.word	score
 754 03b8 00000000 		.word	.LC16
 755 03bc 84020000 		.word	currFigure
 756 03c0 88020000 		.word	currXpos
 757 03c4 8C020000 		.word	currYpos
 758 03c8 90020000 		.word	lastUpdate
 759 03cc 04000000 		.word	board
 760              	.LFE12:
ARM GAS  /cygdrive/c/Users/embedded/AppData/Local/Temp/cc3JnFww.s 			page 22


 761              		.size	setupGame, .-setupGame
 762              		.section	.rodata.str1.4
 763 000d 000000   		.align	2
 764              	.LC24:
 765 0010 50726573 		.ascii	"Press to start\000"
 765      7320746F 
 765      20737461 
 765      727400
 766 001f 00       		.align	2
 767              	.LC30:
 768 0020 47616D65 		.ascii	"Game over!\000"
 768      206F7665 
 768      722100
 769 002b 00       		.align	2
 770              	.LC32:
 771 002c 52657374 		.ascii	"Restart game\000"
 771      61727420 
 771      67616D65 
 771      00
 772 0039 000000   		.align	2
 773              	.LC34:
 774 003c 456E6420 		.ascii	"End game\000"
 774      67616D65 
 774      00
 775 0045 000000   		.text
 776              		.align	2
 777              		.global	playExample
 778              		.code 16
 779              		.thumb_func
 780              		.type	playExample, %function
 781              	playExample:
 782              	.LFB13:
 431:exampleGame.c **** 
 432:exampleGame.c **** 
 433:exampleGame.c **** /*****************************************************************************
 434:exampleGame.c ****  *
 435:exampleGame.c ****  * Description:
 436:exampleGame.c ****  *    Implements example game
 437:exampleGame.c ****  *    
 438:exampleGame.c ****  ****************************************************************************/
 439:exampleGame.c **** void
 440:exampleGame.c **** playExample(void)
 441:exampleGame.c **** {
 783              		.loc 1 441 0
 784 03d0 70B5     		push	{r4, r5, r6, lr}
 785              	.LCFI6:
 442:exampleGame.c ****   gameStatus = GAME_NOT_STARTED;
 786              		.loc 1 442 0
 787 03d2 514B     		ldr	r3, .L158
 788 03d4 0022     		mov	r2, #0
 789              		.loc 1 441 0
 790 03d6 94B0     		sub	sp, sp, #80
 791              	.LCFI7:
 792              		.loc 1 442 0
 793 03d8 1A70     		strb	r2, [r3]
 443:exampleGame.c **** 
 444:exampleGame.c ****   setupGame(FALSE);
ARM GAS  /cygdrive/c/Users/embedded/AppData/Local/Temp/cc3JnFww.s 			page 23


 794              		.loc 1 444 0
 795 03da 0020     		mov	r0, #0
 796 03dc FFF79AFF 		bl	setupGame
 445:exampleGame.c ****   lcdGotoxy(5,40);
 797              		.loc 1 445 0
 798 03e0 0520     		mov	r0, #5
 799 03e2 2821     		mov	r1, #40
 800 03e4 FFF7FEFF 		bl	lcdGotoxy
 446:exampleGame.c ****   lcdColor(0,0xe0);
 801              		.loc 1 446 0
 802 03e8 0020     		mov	r0, #0
 803 03ea E021     		mov	r1, #224
 804 03ec FFF7FEFF 		bl	lcdColor
 447:exampleGame.c ****   lcdPuts("Press to start");
 805              		.loc 1 447 0
 806 03f0 4A48     		ldr	r0, .L158+4
 807 03f2 FFF7FEFF 		bl	lcdPuts
 808 03f6 86E0     		b	.L157
 809              	.LVL67:
 810              	.L121:
 811              	.LBB30:
 448:exampleGame.c **** 
 449:exampleGame.c ****   while(gameStatus != GAME_END)
 450:exampleGame.c ****   {
 451:exampleGame.c ****     tU8 anyKey;
 452:exampleGame.c **** 
 453:exampleGame.c ****     anyKey = checkKey();
 812              		.loc 1 453 0
 813 03f8 FFF7FEFF 		bl	checkKey
 814              	.LVL68:
 454:exampleGame.c ****     switch(gameStatus)
 815              		.loc 1 454 0
 816 03fc 2278     		ldrb	r2, [r4]
 817 03fe 012A     		cmp	r2, #1
 818 0400 07D0     		beq	.L124
 819 0402 012A     		cmp	r2, #1
 820 0404 02D3     		bcc	.L123
 821 0406 022A     		cmp	r2, #2
 822 0408 7BD1     		bne	.L151
 823 040a 3EE0     		b	.L125
 824              	.L123:
 825              	.LVL69:
 455:exampleGame.c ****     {
 456:exampleGame.c ****       case GAME_NOT_STARTED:
 457:exampleGame.c ****         if (anyKey != KEY_NOTHING)
 826              		.loc 1 457 0
 827 040c 0028     		cmp	r0, #0
 828 040e 7AD0     		beq	.L157
 829 0410 71E0     		b	.L143
 830              	.LVL70:
 831              	.L124:
 832              	.LVL71:
 458:exampleGame.c ****         {
 459:exampleGame.c ****           gameStatus = GAME_RUNNING;
 460:exampleGame.c ****           setupGame(TRUE);
 461:exampleGame.c ****         }
 462:exampleGame.c ****         break;
ARM GAS  /cygdrive/c/Users/embedded/AppData/Local/Temp/cc3JnFww.s 			page 24


 463:exampleGame.c ****         
 464:exampleGame.c ****       case GAME_RUNNING:
 465:exampleGame.c ****         if (anyKey != KEY_NOTHING)
 833              		.loc 1 465 0
 834 0412 0028     		cmp	r0, #0
 835 0414 33D0     		beq	.L127
 466:exampleGame.c ****         {
 467:exampleGame.c ****           if (anyKey == KEY_UP)
 836              		.loc 1 467 0
 837 0416 0128     		cmp	r0, #1
 838 0418 0AD1     		bne	.L129
 468:exampleGame.c ****           {
 469:exampleGame.c ****             if(isValid(currXpos, currYpos, shift[currFigure]))
 839              		.loc 1 469 0
 840 041a 414D     		ldr	r5, .L158+8
 841 041c 2B68     		ldr	r3, [r5]
 842 041e 414A     		ldr	r2, .L158+12
 843 0420 9B00     		lsl	r3, r3, #2
 844 0422 9C58     		ldr	r4, [r3, r2]
 845 0424 404B     		ldr	r3, .L158+16
 846 0426 1868     		ldr	r0, [r3]
 847              	.LVL72:
 848 0428 404B     		ldr	r3, .L158+20
 849 042a 1968     		ldr	r1, [r3]
 850 042c 221C     		mov	r2, r4
 851 042e 09E0     		b	.L154
 852              	.LVL73:
 853              	.L129:
 470:exampleGame.c ****               currFigure = shift[currFigure];
 471:exampleGame.c ****           }
 472:exampleGame.c ****           else if (anyKey == KEY_DOWN)
 854              		.loc 1 472 0
 855 0430 0428     		cmp	r0, #4
 856 0432 0DD1     		bne	.L133
 473:exampleGame.c ****           {
 474:exampleGame.c ****             if(isValid(currXpos, currYpos+1, currFigure))
 857              		.loc 1 474 0
 858 0434 3D4D     		ldr	r5, .L158+20
 859 0436 2B68     		ldr	r3, [r5]
 860 0438 5C1C     		add	r4, r3, #1
 861 043a 3B4B     		ldr	r3, .L158+16
 862 043c 1868     		ldr	r0, [r3]
 863              	.LVL74:
 864 043e 384B     		ldr	r3, .L158+8
 865 0440 1A68     		ldr	r2, [r3]
 866 0442 211C     		mov	r1, r4
 867              	.L154:
 868 0444 FFF7DCFD 		bl	isValid
 869 0448 0006     		lsl	r0, r0, #24
 870 044a 0028     		cmp	r0, #0
 871 044c 17D0     		beq	.L127
 872 044e 10E0     		b	.L155
 873              	.LVL75:
 874              	.L133:
 475:exampleGame.c ****               currYpos++;
 476:exampleGame.c ****           }
 477:exampleGame.c ****           else if (anyKey == KEY_RIGHT)
ARM GAS  /cygdrive/c/Users/embedded/AppData/Local/Temp/cc3JnFww.s 			page 25


 875              		.loc 1 477 0
 876 0450 0228     		cmp	r0, #2
 877 0452 03D1     		bne	.L136
 478:exampleGame.c ****           {
 479:exampleGame.c ****             if(isValid(currXpos+1, currYpos, currFigure))
 878              		.loc 1 479 0
 879 0454 344D     		ldr	r5, .L158+16
 880 0456 2B68     		ldr	r3, [r5]
 881 0458 5C1C     		add	r4, r3, #1
 882 045a 04E0     		b	.L156
 883              	.L136:
 480:exampleGame.c ****               currXpos++;
 481:exampleGame.c ****           }
 482:exampleGame.c ****           else if (anyKey == KEY_LEFT)
 884              		.loc 1 482 0
 885 045c 0828     		cmp	r0, #8
 886 045e 0AD1     		bne	.L139
 483:exampleGame.c ****           {
 484:exampleGame.c ****             if(isValid(currXpos-1, currYpos, currFigure))
 887              		.loc 1 484 0
 888 0460 314D     		ldr	r5, .L158+16
 889 0462 2B68     		ldr	r3, [r5]
 890 0464 5C1E     		sub	r4, r3, #1
 891              	.L156:
 892 0466 314B     		ldr	r3, .L158+20
 893 0468 1968     		ldr	r1, [r3]
 894 046a 2D4B     		ldr	r3, .L158+8
 895 046c 1A68     		ldr	r2, [r3]
 896 046e 201C     		mov	r0, r4
 897              	.LVL76:
 898 0470 E8E7     		b	.L154
 899              	.L155:
 485:exampleGame.c ****               currXpos--;
 900              		.loc 1 485 0
 901 0472 2C60     		str	r4, [r5]
 902 0474 03E0     		b	.L127
 903              	.LVL77:
 904              	.L139:
 486:exampleGame.c ****           }
 487:exampleGame.c ****           else if (anyKey == KEY_CENTER)
 905              		.loc 1 487 0
 906 0476 1028     		cmp	r0, #16
 907 0478 01D1     		bne	.L127
 488:exampleGame.c ****             gameStatus = GAME_OVER;
 908              		.loc 1 488 0
 909 047a 0223     		mov	r3, #2
 910 047c 2370     		strb	r3, [r4]
 911              	.L127:
 489:exampleGame.c **** 
 490:exampleGame.c ****           advanceGame();
 491:exampleGame.c ****           osSleep(1);
 492:exampleGame.c ****         }
 493:exampleGame.c ****         else
 494:exampleGame.c ****         {
 495:exampleGame.c ****           advanceGame();
 912              		.loc 1 495 0
 913 047e FFF733FE 		bl	advanceGame
ARM GAS  /cygdrive/c/Users/embedded/AppData/Local/Temp/cc3JnFww.s 			page 26


 914              	.LVL78:
 496:exampleGame.c ****           osSleep(1);
 915              		.loc 1 496 0
 916 0482 0120     		mov	r0, #1
 917 0484 FFF7FEFF 		bl	osSleep
 918 0488 3DE0     		b	.L157
 919              	.L125:
 920              	.LBB31:
 497:exampleGame.c ****         }
 498:exampleGame.c ****         break;
 499:exampleGame.c ****         
 500:exampleGame.c ****       case GAME_OVER:
 501:exampleGame.c ****       {
 502:exampleGame.c ****         tMenu menu;
 503:exampleGame.c ****         
 504:exampleGame.c ****         menu.xPos = 10;
 921              		.loc 1 504 0
 922 048a 08A9     		add	r1, sp, #32
 923 048c 0A23     		mov	r3, #10
 924 048e 0B70     		strb	r3, [r1]
 505:exampleGame.c ****         menu.yPos = 40;
 925              		.loc 1 505 0
 926 0490 2823     		mov	r3, #40
 927 0492 4B70     		strb	r3, [r1, #1]
 506:exampleGame.c ****         menu.xLen = 6+(12*8);
 928              		.loc 1 506 0
 929 0494 6623     		mov	r3, #102
 930 0496 8B70     		strb	r3, [r1, #2]
 507:exampleGame.c ****         menu.yLen = 4*14;
 931              		.loc 1 507 0
 932 0498 3823     		mov	r3, #56
 933 049a CB70     		strb	r3, [r1, #3]
 508:exampleGame.c ****         menu.noOfChoices = 2;
 509:exampleGame.c ****         menu.initialChoice = 0;
 510:exampleGame.c ****         menu.pHeaderText = "Game over!";
 511:exampleGame.c ****         menu.headerTextXpos = 20;
 934              		.loc 1 511 0
 935 049c 1423     		mov	r3, #20
 936 049e 0B73     		strb	r3, [r1, #12]
 512:exampleGame.c ****         menu.pChoice[0] = "Restart game";
 937              		.loc 1 512 0
 938 04a0 234B     		ldr	r3, .L158+24
 939 04a2 0C93     		str	r3, [sp, #48]
 513:exampleGame.c ****         menu.pChoice[1] = "End game";
 940              		.loc 1 513 0
 941 04a4 234B     		ldr	r3, .L158+28
 942              		.loc 1 509 0
 943 04a6 0020     		mov	r0, #0
 944              		.loc 1 513 0
 945 04a8 0D93     		str	r3, [sp, #52]
 514:exampleGame.c ****         menu.bgColor       = 0;
 946              		.loc 1 514 0
 947 04aa 12AB     		add	r3, sp, #72
 948              		.loc 1 508 0
 949 04ac 0A71     		strb	r2, [r1, #4]
 950              		.loc 1 509 0
 951 04ae 4871     		strb	r0, [r1, #5]
ARM GAS  /cygdrive/c/Users/embedded/AppData/Local/Temp/cc3JnFww.s 			page 27


 952              		.loc 1 514 0
 953 04b0 1870     		strb	r0, [r3]
 515:exampleGame.c ****         menu.borderColor   = 0x6d;
 954              		.loc 1 515 0
 955 04b2 6D21     		mov	r1, #109
 956 04b4 0133     		add	r3, r3, #1
 957 04b6 1970     		strb	r1, [r3]
 516:exampleGame.c ****         menu.headerColor   = 0;
 958              		.loc 1 516 0
 959 04b8 0133     		add	r3, r3, #1
 960 04ba 1870     		strb	r0, [r3]
 517:exampleGame.c ****         menu.choicesColor  = 0xfd;
 961              		.loc 1 517 0
 962 04bc 6946     		mov	r1, sp
 963 04be 0323     		mov	r3, #3
 964 04c0 5B42     		neg	r3, r3
 965 04c2 4B31     		add	r1, r1, #75
 966 04c4 0B70     		strb	r3, [r1]
 967              		.loc 1 510 0
 968 04c6 1C4A     		ldr	r2, .L158+32
 518:exampleGame.c ****         menu.selectedColor = 0xe0;
 969              		.loc 1 518 0
 970 04c8 2023     		mov	r3, #32
 971 04ca 5B42     		neg	r3, r3
 972 04cc 13A9     		add	r1, sp, #76
 973 04ce 0B70     		strb	r3, [r1]
 974              		.loc 1 510 0
 975 04d0 0A92     		str	r2, [sp, #40]
 519:exampleGame.c ****         
 520:exampleGame.c ****         switch(drawMenu(menu))
 976              		.loc 1 520 0
 977 04d2 0CAB     		add	r3, sp, #48
 978 04d4 6946     		mov	r1, sp
 979 04d6 61CB     		ldmia	r3!, {r0, r5, r6}
 980 04d8 61C1     		stmia	r1!, {r0, r5, r6}
 981 04da 61CB     		ldmia	r3!, {r0, r5, r6}
 982 04dc 61C1     		stmia	r1!, {r0, r5, r6}
 983 04de 21CB     		ldmia	r3!, {r0, r5}
 984 04e0 21C1     		stmia	r1!, {r0, r5}
 985 04e2 0898     		ldr	r0, [sp, #32]
 986 04e4 0999     		ldr	r1, [sp, #36]
 987 04e6 0B9B     		ldr	r3, [sp, #44]
 988 04e8 FFF7FEFF 		bl	drawMenu
 989 04ec 0028     		cmp	r0, #0
 990 04ee 02D0     		beq	.L143
 991 04f0 0128     		cmp	r0, #1
 992 04f2 08D1     		bne	.L157
 993 04f4 05E0     		b	.L151
 994              	.LVL79:
 995              	.L143:
 521:exampleGame.c ****         {
 522:exampleGame.c ****           case 0: gameStatus = GAME_RUNNING; setupGame(TRUE); break;  //Restart game
 996              		.loc 1 522 0
 997 04f6 0123     		mov	r3, #1
 998 04f8 2370     		strb	r3, [r4]
 999 04fa 0120     		mov	r0, #1
 1000              	.LVL80:
ARM GAS  /cygdrive/c/Users/embedded/AppData/Local/Temp/cc3JnFww.s 			page 28


 1001 04fc FFF70AFF 		bl	setupGame
 1002 0500 01E0     		b	.L157
 1003              	.L151:
 1004              	.LBE31:
 523:exampleGame.c ****           case 1: gameStatus = GAME_END; break;                       //End game
 524:exampleGame.c ****           default: break;
 525:exampleGame.c ****         }
 526:exampleGame.c ****       }
 527:exampleGame.c ****         break;
 528:exampleGame.c ****         
 529:exampleGame.c ****       default:
 530:exampleGame.c ****         gameStatus = GAME_END;
 1005              		.loc 1 530 0
 1006 0502 0323     		mov	r3, #3
 1007 0504 2370     		strb	r3, [r4]
 1008              	.LVL81:
 1009              	.L157:
 1010              	.LBE30:
 1011              		.loc 1 449 0
 1012 0506 044C     		ldr	r4, .L158
 1013 0508 2378     		ldrb	r3, [r4]
 1014 050a 032B     		cmp	r3, #3
 1015 050c 00D0     		beq	.LCB1111
 1016 050e 73E7     		b	.L121	@long jump
 1017              	.LCB1111:
 531:exampleGame.c ****         break;
 532:exampleGame.c ****     }
 533:exampleGame.c ****   }
 534:exampleGame.c **** }
 1018              		.loc 1 534 0
 1019 0510 14B0     		add	sp, sp, #80
 1020              		@ sp needed for prologue
 1021 0512 70BC     		pop	{r4, r5, r6}
 1022 0514 01BC     		pop	{r0}
 1023 0516 0047     		bx	r0
 1024              	.L159:
 1025              		.align	2
 1026              	.L158:
 1027 0518 00000000 		.word	gameStatus
 1028 051c 10000000 		.word	.LC24
 1029 0520 84020000 		.word	currFigure
 1030 0524 00000000 		.word	shift
 1031 0528 88020000 		.word	currXpos
 1032 052c 8C020000 		.word	currYpos
 1033 0530 2C000000 		.word	.LC32
 1034 0534 3C000000 		.word	.LC34
 1035 0538 20000000 		.word	.LC30
 1036              	.LFE13:
 1037              		.size	playExample, .-playExample
 1038              		.global	figures
 1039              		.data
 1040              		.type	figures, %object
 1041              		.size	figures, 304
 1042              	figures:
 1043 0000 2E582E2E 		.ascii	".X.."
 1044 0004 2E582E2E 		.ascii	".X.."
 1045 0008 2E582E2E 		.ascii	".X.."
ARM GAS  /cygdrive/c/Users/embedded/AppData/Local/Temp/cc3JnFww.s 			page 29


 1046 000c 2E582E2E 		.ascii	".X.."
 1047 0010 2E2E2E2E 		.ascii	"...."
 1048 0014 58585858 		.ascii	"XXXX"
 1049 0018 2E2E2E2E 		.ascii	"...."
 1050 001c 2E2E2E2E 		.ascii	"...."
 1051 0020 5858582E 		.ascii	"XXX."
 1052 0024 582E2E2E 		.ascii	"X..."
 1053 0028 2E2E2E2E 		.ascii	"...."
 1054 002c 2E2E2E2E 		.ascii	"...."
 1055 0030 2E58582E 		.ascii	".XX."
 1056 0034 2E2E582E 		.ascii	"..X."
 1057 0038 2E2E582E 		.ascii	"..X."
 1058 003c 2E2E2E2E 		.ascii	"...."
 1059 0040 2E2E582E 		.ascii	"..X."
 1060 0044 5858582E 		.ascii	"XXX."
 1061 0048 2E2E2E2E 		.ascii	"...."
 1062 004c 2E2E2E2E 		.ascii	"...."
 1063 0050 2E582E2E 		.ascii	".X.."
 1064 0054 2E582E2E 		.ascii	".X.."
 1065 0058 2E58582E 		.ascii	".XX."
 1066 005c 2E2E2E2E 		.ascii	"...."
 1067 0060 5858582E 		.ascii	"XXX."
 1068 0064 2E2E582E 		.ascii	"..X."
 1069 0068 2E2E2E2E 		.ascii	"...."
 1070 006c 2E2E2E2E 		.ascii	"...."
 1071 0070 2E2E582E 		.ascii	"..X."
 1072 0074 2E2E582E 		.ascii	"..X."
 1073 0078 2E58582E 		.ascii	".XX."
 1074 007c 2E2E2E2E 		.ascii	"...."
 1075 0080 582E2E2E 		.ascii	"X..."
 1076 0084 5858582E 		.ascii	"XXX."
 1077 0088 2E2E2E2E 		.ascii	"...."
 1078 008c 2E2E2E2E 		.ascii	"...."
 1079 0090 2E58582E 		.ascii	".XX."
 1080 0094 2E582E2E 		.ascii	".X.."
 1081 0098 2E582E2E 		.ascii	".X.."
 1082 009c 2E2E2E2E 		.ascii	"...."
 1083 00a0 2E582E2E 		.ascii	".X.."
 1084 00a4 5858582E 		.ascii	"XXX."
 1085 00a8 2E2E2E2E 		.ascii	"...."
 1086 00ac 2E2E2E2E 		.ascii	"...."
 1087 00b0 2E582E2E 		.ascii	".X.."
 1088 00b4 2E58582E 		.ascii	".XX."
 1089 00b8 2E582E2E 		.ascii	".X.."
 1090 00bc 2E2E2E2E 		.ascii	"...."
 1091 00c0 5858582E 		.ascii	"XXX."
 1092 00c4 2E582E2E 		.ascii	".X.."
 1093 00c8 2E2E2E2E 		.ascii	"...."
 1094 00cc 2E2E2E2E 		.ascii	"...."
 1095 00d0 2E582E2E 		.ascii	".X.."
 1096 00d4 58582E2E 		.ascii	"XX.."
 1097 00d8 2E582E2E 		.ascii	".X.."
 1098 00dc 2E2E2E2E 		.ascii	"...."
 1099 00e0 582E2E2E 		.ascii	"X..."
 1100 00e4 58582E2E 		.ascii	"XX.."
 1101 00e8 2E582E2E 		.ascii	".X.."
 1102 00ec 2E2E2E2E 		.ascii	"...."
ARM GAS  /cygdrive/c/Users/embedded/AppData/Local/Temp/cc3JnFww.s 			page 30


 1103 00f0 2E58582E 		.ascii	".XX."
 1104 00f4 58582E2E 		.ascii	"XX.."
 1105 00f8 2E2E2E2E 		.ascii	"...."
 1106 00fc 2E2E2E2E 		.ascii	"...."
 1107 0100 2E582E2E 		.ascii	".X.."
 1108 0104 58582E2E 		.ascii	"XX.."
 1109 0108 582E2E2E 		.ascii	"X..."
 1110 010c 2E2E2E2E 		.ascii	"...."
 1111 0110 58582E2E 		.ascii	"XX.."
 1112 0114 2E58582E 		.ascii	".XX."
 1113 0118 2E2E2E2E 		.ascii	"...."
 1114 011c 2E2E2E2E 		.ascii	"...."
 1115 0120 58582E2E 		.ascii	"XX.."
 1116 0124 58582E2E 		.ascii	"XX.."
 1117 0128 2E2E2E2E 		.ascii	"...."
 1118 012c 2E2E2E2E 		.ascii	"...."
 1119              		.section	.rodata
 1120              		.align	2
 1121              		.type	shift, %object
 1122              		.size	shift, 76
 1123              	shift:
 1124 0000 01000000 		.word	1
 1125 0004 00000000 		.word	0
 1126 0008 03000000 		.word	3
 1127 000c 04000000 		.word	4
 1128 0010 05000000 		.word	5
 1129 0014 02000000 		.word	2
 1130 0018 07000000 		.word	7
 1131 001c 08000000 		.word	8
 1132 0020 09000000 		.word	9
 1133 0024 06000000 		.word	6
 1134 0028 0B000000 		.word	11
 1135 002c 0C000000 		.word	12
 1136 0030 0D000000 		.word	13
 1137 0034 0A000000 		.word	10
 1138 0038 0F000000 		.word	15
 1139 003c 0E000000 		.word	14
 1140 0040 11000000 		.word	17
 1141 0044 10000000 		.word	16
 1142 0048 12000000 		.word	18
 1143              		.bss
 1144              	gameStatus:
 1145 0000 00       		.space	1
 1146              	score:
 1147 0001 00       		.space	1
 1148 0002 0000     		.align	2
 1149              	board:
 1150 0004 00000000 		.space	640
 1150      00000000 
 1150      00000000 
 1150      00000000 
 1150      00000000 
 1151              		.align	2
 1152              	currFigure:
 1153 0284 00000000 		.space	4
 1154              		.align	2
 1155              	currXpos:
ARM GAS  /cygdrive/c/Users/embedded/AppData/Local/Temp/cc3JnFww.s 			page 31


 1156 0288 00000000 		.space	4
 1157              		.align	2
 1158              	currYpos:
 1159 028c 00000000 		.space	4
 1160              		.align	2
 1161              	lastUpdate:
 1162 0290 00000000 		.space	4
 1163              		.align	2
 1164              	delayTimeMs:
 1165 0294 00000000 		.space	4
 1166              		.section	.debug_frame,"",%progbits
 1167              	.Lframe0:
 1168 0000 0C000000 		.4byte	.LECIE0-.LSCIE0
 1169              	.LSCIE0:
 1170 0004 FFFFFFFF 		.4byte	0xffffffff
 1171 0008 01       		.byte	0x1
 1172 0009 00       		.ascii	"\000"
 1173 000a 01       		.uleb128 0x1
 1174 000b 7C       		.sleb128 -4
 1175 000c 0E       		.byte	0xe
 1176 000d 0C       		.byte	0xc
 1177 000e 0D       		.uleb128 0xd
 1178 000f 00       		.uleb128 0x0
 1179              		.align	2
 1180              	.LECIE0:
 1181              	.LSFDE0:
 1182 0010 1C000000 		.4byte	.LEFDE0-.LASFDE0
 1183              	.LASFDE0:
 1184 0014 00000000 		.4byte	.Lframe0
 1185 0018 00000000 		.4byte	.LFB2
 1186 001c 98000000 		.4byte	.LFE2-.LFB2
 1187 0020 42       		.byte	0x4
 1188              		.4byte	.LCFI0-.LFB2
 1189 0021 0E       		.byte	0xe
 1190 0022 14       		.uleb128 0x14
 1191 0023 84       		.byte	0x84
 1192 0024 05       		.uleb128 0x5
 1193 0025 85       		.byte	0x85
 1194 0026 04       		.uleb128 0x4
 1195 0027 86       		.byte	0x86
 1196 0028 03       		.uleb128 0x3
 1197 0029 87       		.byte	0x87
 1198 002a 02       		.uleb128 0x2
 1199 002b 8E       		.byte	0x8e
 1200 002c 01       		.uleb128 0x1
 1201 002d 000000   		.align	2
 1202              	.LEFDE0:
 1203              	.LSFDE2:
 1204 0030 1C000000 		.4byte	.LEFDE2-.LASFDE2
 1205              	.LASFDE2:
 1206 0034 00000000 		.4byte	.Lframe0
 1207 0038 98000000 		.4byte	.LFB4
 1208 003c 50000000 		.4byte	.LFE4-.LFB4
 1209 0040 42       		.byte	0x4
 1210              		.4byte	.LCFI1-.LFB4
 1211 0041 0E       		.byte	0xe
 1212 0042 14       		.uleb128 0x14
ARM GAS  /cygdrive/c/Users/embedded/AppData/Local/Temp/cc3JnFww.s 			page 32


 1213 0043 84       		.byte	0x84
 1214 0044 05       		.uleb128 0x5
 1215 0045 85       		.byte	0x85
 1216 0046 04       		.uleb128 0x4
 1217 0047 86       		.byte	0x86
 1218 0048 03       		.uleb128 0x3
 1219 0049 87       		.byte	0x87
 1220 004a 02       		.uleb128 0x2
 1221 004b 8E       		.byte	0x8e
 1222 004c 01       		.uleb128 0x1
 1223 004d 000000   		.align	2
 1224              	.LEFDE2:
 1225              	.LSFDE4:
 1226 0050 1C000000 		.4byte	.LEFDE4-.LASFDE4
 1227              	.LASFDE4:
 1228 0054 00000000 		.4byte	.Lframe0
 1229 0058 E8000000 		.4byte	.LFB11
 1230 005c 2C020000 		.4byte	.LFE11-.LFB11
 1231 0060 42       		.byte	0x4
 1232              		.4byte	.LCFI2-.LFB11
 1233 0061 0E       		.byte	0xe
 1234 0062 14       		.uleb128 0x14
 1235 0063 84       		.byte	0x84
 1236 0064 05       		.uleb128 0x5
 1237 0065 85       		.byte	0x85
 1238 0066 04       		.uleb128 0x4
 1239 0067 86       		.byte	0x86
 1240 0068 03       		.uleb128 0x3
 1241 0069 87       		.byte	0x87
 1242 006a 02       		.uleb128 0x2
 1243 006b 8E       		.byte	0x8e
 1244 006c 01       		.uleb128 0x1
 1245 006d 4C       		.byte	0x4
 1246              		.4byte	.LCFI3-.LCFI2
 1247 006e 0E       		.byte	0xe
 1248 006f 2C       		.uleb128 0x2c
 1249              		.align	2
 1250              	.LEFDE4:
 1251              	.LSFDE6:
 1252 0070 18000000 		.4byte	.LEFDE6-.LASFDE6
 1253              	.LASFDE6:
 1254 0074 00000000 		.4byte	.Lframe0
 1255 0078 14030000 		.4byte	.LFB12
 1256 007c BC000000 		.4byte	.LFE12-.LFB12
 1257 0080 42       		.byte	0x4
 1258              		.4byte	.LCFI4-.LFB12
 1259 0081 0E       		.byte	0xe
 1260 0082 0C       		.uleb128 0xc
 1261 0083 84       		.byte	0x84
 1262 0084 03       		.uleb128 0x3
 1263 0085 85       		.byte	0x85
 1264 0086 02       		.uleb128 0x2
 1265 0087 8E       		.byte	0x8e
 1266 0088 01       		.uleb128 0x1
 1267 0089 46       		.byte	0x4
 1268              		.4byte	.LCFI5-.LCFI4
 1269 008a 0E       		.byte	0xe
ARM GAS  /cygdrive/c/Users/embedded/AppData/Local/Temp/cc3JnFww.s 			page 33


 1270 008b 10       		.uleb128 0x10
 1271              		.align	2
 1272              	.LEFDE6:
 1273              	.LSFDE8:
 1274 008c 1C000000 		.4byte	.LEFDE8-.LASFDE8
 1275              	.LASFDE8:
 1276 0090 00000000 		.4byte	.Lframe0
 1277 0094 D0030000 		.4byte	.LFB13
 1278 0098 6C010000 		.4byte	.LFE13-.LFB13
 1279 009c 42       		.byte	0x4
 1280              		.4byte	.LCFI6-.LFB13
 1281 009d 0E       		.byte	0xe
 1282 009e 10       		.uleb128 0x10
 1283 009f 84       		.byte	0x84
 1284 00a0 04       		.uleb128 0x4
 1285 00a1 85       		.byte	0x85
 1286 00a2 03       		.uleb128 0x3
 1287 00a3 86       		.byte	0x86
 1288 00a4 02       		.uleb128 0x2
 1289 00a5 8E       		.byte	0x8e
 1290 00a6 01       		.uleb128 0x1
 1291 00a7 46       		.byte	0x4
 1292              		.4byte	.LCFI7-.LCFI6
 1293 00a8 0E       		.byte	0xe
 1294 00a9 60       		.uleb128 0x60
 1295 00aa 0000     		.align	2
 1296              	.LEFDE8:
 1297              		.file 2 "./startup/../pre_emptive_os/api/../api/general.h"
 1298              		.file 3 "select.h"
 1299              		.text
 1300              	.Letext0:
 1301              		.section	.debug_loc,"",%progbits
 1302              	.Ldebug_loc0:
 1303              	.LLST0:
 1304 0000 00000000 		.4byte	.LFB2-.Ltext0
 1305 0004 02000000 		.4byte	.LCFI0-.Ltext0
 1306 0008 0100     		.2byte	0x1
 1307 000a 5D       		.byte	0x5d
 1308 000b 02000000 		.4byte	.LCFI0-.Ltext0
 1309 000f 98000000 		.4byte	.LFE2-.Ltext0
 1310 0013 0200     		.2byte	0x2
 1311 0015 7D       		.byte	0x7d
 1312 0016 14       		.sleb128 20
 1313 0017 00000000 		.4byte	0x0
 1314 001b 00000000 		.4byte	0x0
 1315              	.LLST1:
 1316 001f 02000000 		.4byte	.LVL0-.Ltext0
 1317 0023 12000000 		.4byte	.LVL3-.Ltext0
 1318 0027 0100     		.2byte	0x1
 1319 0029 50       		.byte	0x50
 1320 002a 20000000 		.4byte	.LVL4-.Ltext0
 1321 002e 2A000000 		.4byte	.LVL5-.Ltext0
 1322 0032 0100     		.2byte	0x1
 1323 0034 50       		.byte	0x50
 1324 0035 62000000 		.4byte	.LVL8-.Ltext0
 1325 0039 70000000 		.4byte	.LVL11-.Ltext0
 1326 003d 0100     		.2byte	0x1
ARM GAS  /cygdrive/c/Users/embedded/AppData/Local/Temp/cc3JnFww.s 			page 34


 1327 003f 50       		.byte	0x50
 1328 0040 00000000 		.4byte	0x0
 1329 0044 00000000 		.4byte	0x0
 1330              	.LLST2:
 1331 0048 02000000 		.4byte	.LVL0-.Ltext0
 1332 004c 0C000000 		.4byte	.LVL2-.Ltext0
 1333 0050 0100     		.2byte	0x1
 1334 0052 51       		.byte	0x51
 1335 0053 0C000000 		.4byte	.LVL2-.Ltext0
 1336 0057 8A000000 		.4byte	.LVL17-.Ltext0
 1337 005b 0100     		.2byte	0x1
 1338 005d 56       		.byte	0x56
 1339 005e 00000000 		.4byte	0x0
 1340 0062 00000000 		.4byte	0x0
 1341              	.LLST3:
 1342 0066 02000000 		.4byte	.LVL0-.Ltext0
 1343 006a 0C000000 		.4byte	.LVL2-.Ltext0
 1344 006e 0100     		.2byte	0x1
 1345 0070 52       		.byte	0x52
 1346 0071 0C000000 		.4byte	.LVL2-.Ltext0
 1347 0075 8A000000 		.4byte	.LVL18-.Ltext0
 1348 0079 0100     		.2byte	0x1
 1349 007b 57       		.byte	0x57
 1350 007c 00000000 		.4byte	0x0
 1351 0080 00000000 		.4byte	0x0
 1352              	.LLST4:
 1353 0084 0A000000 		.4byte	.LVL1-.Ltext0
 1354 0088 32000000 		.4byte	.LVL6-.Ltext0
 1355 008c 0100     		.2byte	0x1
 1356 008e 54       		.byte	0x54
 1357 008f 32000000 		.4byte	.LVL6-.Ltext0
 1358 0093 62000000 		.4byte	.LVL8-.Ltext0
 1359 0097 0100     		.2byte	0x1
 1360 0099 54       		.byte	0x54
 1361 009a 72000000 		.4byte	.LVL12-.Ltext0
 1362 009e 72000000 		.4byte	.LVL12-.Ltext0
 1363 00a2 0100     		.2byte	0x1
 1364 00a4 54       		.byte	0x54
 1365 00a5 8A000000 		.4byte	.LVL15-.Ltext0
 1366 00a9 8A000000 		.4byte	.LVL16-.Ltext0
 1367 00ad 0100     		.2byte	0x1
 1368 00af 54       		.byte	0x54
 1369 00b0 00000000 		.4byte	0x0
 1370 00b4 00000000 		.4byte	0x0
 1371              	.LLST5:
 1372 00b8 0C000000 		.4byte	.LVL2-.Ltext0
 1373 00bc 32000000 		.4byte	.LVL6-.Ltext0
 1374 00c0 0100     		.2byte	0x1
 1375 00c2 52       		.byte	0x52
 1376 00c3 32000000 		.4byte	.LVL6-.Ltext0
 1377 00c7 62000000 		.4byte	.LVL8-.Ltext0
 1378 00cb 0100     		.2byte	0x1
 1379 00cd 52       		.byte	0x52
 1380 00ce 6E000000 		.4byte	.LVL10-.Ltext0
 1381 00d2 76000000 		.4byte	.LVL13-.Ltext0
 1382 00d6 0100     		.2byte	0x1
 1383 00d8 52       		.byte	0x52
ARM GAS  /cygdrive/c/Users/embedded/AppData/Local/Temp/cc3JnFww.s 			page 35


 1384 00d9 88000000 		.4byte	.LVL14-.Ltext0
 1385 00dd 98000000 		.4byte	.LFE2-.Ltext0
 1386 00e1 0100     		.2byte	0x1
 1387 00e3 52       		.byte	0x52
 1388 00e4 00000000 		.4byte	0x0
 1389 00e8 00000000 		.4byte	0x0
 1390              	.LLST6:
 1391 00ec 98000000 		.4byte	.LFB4-.Ltext0
 1392 00f0 9A000000 		.4byte	.LCFI1-.Ltext0
 1393 00f4 0100     		.2byte	0x1
 1394 00f6 5D       		.byte	0x5d
 1395 00f7 9A000000 		.4byte	.LCFI1-.Ltext0
 1396 00fb E8000000 		.4byte	.LFE4-.Ltext0
 1397 00ff 0200     		.2byte	0x2
 1398 0101 7D       		.byte	0x7d
 1399 0102 14       		.sleb128 20
 1400 0103 00000000 		.4byte	0x0
 1401 0107 00000000 		.4byte	0x0
 1402              	.LLST7:
 1403 010b 9A000000 		.4byte	.LVL19-.Ltext0
 1404 010f A4000000 		.4byte	.LVL21-.Ltext0
 1405 0113 0100     		.2byte	0x1
 1406 0115 50       		.byte	0x50
 1407 0116 A4000000 		.4byte	.LVL21-.Ltext0
 1408 011a D8000000 		.4byte	.LVL28-.Ltext0
 1409 011e 0100     		.2byte	0x1
 1410 0120 57       		.byte	0x57
 1411 0121 00000000 		.4byte	0x0
 1412 0125 00000000 		.4byte	0x0
 1413              	.LLST8:
 1414 0129 9A000000 		.4byte	.LVL19-.Ltext0
 1415 012d A4000000 		.4byte	.LVL21-.Ltext0
 1416 0131 0100     		.2byte	0x1
 1417 0133 51       		.byte	0x51
 1418 0134 A4000000 		.4byte	.LVL21-.Ltext0
 1419 0138 D8000000 		.4byte	.LVL27-.Ltext0
 1420 013c 0100     		.2byte	0x1
 1421 013e 56       		.byte	0x56
 1422 013f 00000000 		.4byte	0x0
 1423 0143 00000000 		.4byte	0x0
 1424              	.LLST9:
 1425 0147 9A000000 		.4byte	.LVL19-.Ltext0
 1426 014b A4000000 		.4byte	.LVL21-.Ltext0
 1427 014f 0100     		.2byte	0x1
 1428 0151 52       		.byte	0x52
 1429 0152 A4000000 		.4byte	.LVL21-.Ltext0
 1430 0156 D8000000 		.4byte	.LVL26-.Ltext0
 1431 015a 0100     		.2byte	0x1
 1432 015c 55       		.byte	0x55
 1433 015d 00000000 		.4byte	0x0
 1434 0161 00000000 		.4byte	0x0
 1435              	.LLST10:
 1436 0165 A2000000 		.4byte	.LVL20-.Ltext0
 1437 0169 D8000000 		.4byte	.LVL25-.Ltext0
 1438 016d 0100     		.2byte	0x1
 1439 016f 54       		.byte	0x54
 1440 0170 00000000 		.4byte	0x0
ARM GAS  /cygdrive/c/Users/embedded/AppData/Local/Temp/cc3JnFww.s 			page 36


 1441 0174 00000000 		.4byte	0x0
 1442              	.LLST11:
 1443 0178 A4000000 		.4byte	.LVL21-.Ltext0
 1444 017c C2000000 		.4byte	.LVL23-.Ltext0
 1445 0180 0100     		.2byte	0x1
 1446 0182 52       		.byte	0x52
 1447 0183 D6000000 		.4byte	.LVL24-.Ltext0
 1448 0187 E8000000 		.4byte	.LFE4-.Ltext0
 1449 018b 0100     		.2byte	0x1
 1450 018d 52       		.byte	0x52
 1451 018e 00000000 		.4byte	0x0
 1452 0192 00000000 		.4byte	0x0
 1453              	.LLST12:
 1454 0196 E8000000 		.4byte	.LFB11-.Ltext0
 1455 019a EA000000 		.4byte	.LCFI2-.Ltext0
 1456 019e 0100     		.2byte	0x1
 1457 01a0 5D       		.byte	0x5d
 1458 01a1 EA000000 		.4byte	.LCFI2-.Ltext0
 1459 01a5 F6000000 		.4byte	.LCFI3-.Ltext0
 1460 01a9 0200     		.2byte	0x2
 1461 01ab 7D       		.byte	0x7d
 1462 01ac 14       		.sleb128 20
 1463 01ad F6000000 		.4byte	.LCFI3-.Ltext0
 1464 01b1 14030000 		.4byte	.LFE11-.Ltext0
 1465 01b5 0200     		.2byte	0x2
 1466 01b7 7D       		.byte	0x7d
 1467 01b8 2C       		.sleb128 44
 1468 01b9 00000000 		.4byte	0x0
 1469 01bd 00000000 		.4byte	0x0
 1470              	.LLST13:
 1471 01c1 54010000 		.4byte	.LVL29-.Ltext0
 1472 01c5 A6010000 		.4byte	.LVL38-.Ltext0
 1473 01c9 0100     		.2byte	0x1
 1474 01cb 54       		.byte	0x54
 1475 01cc BA020000 		.4byte	.LVL50-.Ltext0
 1476 01d0 D8020000 		.4byte	.LVL53-.Ltext0
 1477 01d4 0100     		.2byte	0x1
 1478 01d6 54       		.byte	0x54
 1479 01d7 00000000 		.4byte	0x0
 1480 01db 00000000 		.4byte	0x0
 1481              	.LLST14:
 1482 01df 56010000 		.4byte	.LVL30-.Ltext0
 1483 01e3 7C010000 		.4byte	.LVL31-.Ltext0
 1484 01e7 0100     		.2byte	0x1
 1485 01e9 52       		.byte	0x52
 1486 01ea 80010000 		.4byte	.LVL32-.Ltext0
 1487 01ee 86010000 		.4byte	.LVL33-.Ltext0
 1488 01f2 0100     		.2byte	0x1
 1489 01f4 52       		.byte	0x52
 1490 01f5 8A010000 		.4byte	.LVL34-.Ltext0
 1491 01f9 90010000 		.4byte	.LVL35-.Ltext0
 1492 01fd 0100     		.2byte	0x1
 1493 01ff 52       		.byte	0x52
 1494 0200 94010000 		.4byte	.LVL36-.Ltext0
 1495 0204 96010000 		.4byte	.LVL37-.Ltext0
 1496 0208 0100     		.2byte	0x1
 1497 020a 52       		.byte	0x52
ARM GAS  /cygdrive/c/Users/embedded/AppData/Local/Temp/cc3JnFww.s 			page 37


 1498 020b BA020000 		.4byte	.LVL50-.Ltext0
 1499 020f BC020000 		.4byte	.LVL51-.Ltext0
 1500 0213 0100     		.2byte	0x1
 1501 0215 52       		.byte	0x52
 1502 0216 D6020000 		.4byte	.LVL52-.Ltext0
 1503 021a D8020000 		.4byte	.LVL53-.Ltext0
 1504 021e 0100     		.2byte	0x1
 1505 0220 52       		.byte	0x52
 1506 0221 00000000 		.4byte	0x0
 1507 0225 00000000 		.4byte	0x0
 1508              	.LLST15:
 1509 0229 F8010000 		.4byte	.LVL39-.Ltext0
 1510 022d 4C020000 		.4byte	.LVL46-.Ltext0
 1511 0231 0100     		.2byte	0x1
 1512 0233 54       		.byte	0x54
 1513 0234 A8020000 		.4byte	.LVL48-.Ltext0
 1514 0238 B0020000 		.4byte	.LVL49-.Ltext0
 1515 023c 0100     		.2byte	0x1
 1516 023e 54       		.byte	0x54
 1517 023f D8020000 		.4byte	.LVL53-.Ltext0
 1518 0243 E4020000 		.4byte	.LVL54-.Ltext0
 1519 0247 0100     		.2byte	0x1
 1520 0249 54       		.byte	0x54
 1521 024a 00000000 		.4byte	0x0
 1522 024e 00000000 		.4byte	0x0
 1523              	.LLST16:
 1524 0252 2C020000 		.4byte	.LVL42-.Ltext0
 1525 0256 56020000 		.4byte	.LVL47-.Ltext0
 1526 025a 0100     		.2byte	0x1
 1527 025c 51       		.byte	0x51
 1528 025d 00000000 		.4byte	0x0
 1529 0261 00000000 		.4byte	0x0
 1530              	.LLST17:
 1531 0265 18020000 		.4byte	.LVL40-.Ltext0
 1532 0269 B0020000 		.4byte	.LVL49-.Ltext0
 1533 026d 0100     		.2byte	0x1
 1534 026f 56       		.byte	0x56
 1535 0270 D8020000 		.4byte	.LVL53-.Ltext0
 1536 0274 E4020000 		.4byte	.LVL55-.Ltext0
 1537 0278 0100     		.2byte	0x1
 1538 027a 56       		.byte	0x56
 1539 027b 00000000 		.4byte	0x0
 1540 027f 00000000 		.4byte	0x0
 1541              	.LLST18:
 1542 0283 1A020000 		.4byte	.LVL41-.Ltext0
 1543 0287 2C020000 		.4byte	.LVL42-.Ltext0
 1544 028b 0100     		.2byte	0x1
 1545 028d 51       		.byte	0x51
 1546 028e 3A020000 		.4byte	.LVL43-.Ltext0
 1547 0292 46020000 		.4byte	.LVL44-.Ltext0
 1548 0296 0100     		.2byte	0x1
 1549 0298 51       		.byte	0x51
 1550 0299 48020000 		.4byte	.LVL45-.Ltext0
 1551 029d 56020000 		.4byte	.LVL47-.Ltext0
 1552 02a1 0100     		.2byte	0x1
 1553 02a3 51       		.byte	0x51
 1554 02a4 A8020000 		.4byte	.LVL48-.Ltext0
ARM GAS  /cygdrive/c/Users/embedded/AppData/Local/Temp/cc3JnFww.s 			page 38


 1555 02a8 B0020000 		.4byte	.LVL49-.Ltext0
 1556 02ac 0100     		.2byte	0x1
 1557 02ae 51       		.byte	0x51
 1558 02af D8020000 		.4byte	.LVL53-.Ltext0
 1559 02b3 14030000 		.4byte	.LFE11-.Ltext0
 1560 02b7 0100     		.2byte	0x1
 1561 02b9 51       		.byte	0x51
 1562 02ba 00000000 		.4byte	0x0
 1563 02be 00000000 		.4byte	0x0
 1564              	.LLST19:
 1565 02c2 14030000 		.4byte	.LFB12-.Ltext0
 1566 02c6 16030000 		.4byte	.LCFI4-.Ltext0
 1567 02ca 0100     		.2byte	0x1
 1568 02cc 5D       		.byte	0x5d
 1569 02cd 16030000 		.4byte	.LCFI4-.Ltext0
 1570 02d1 1C030000 		.4byte	.LCFI5-.Ltext0
 1571 02d5 0200     		.2byte	0x2
 1572 02d7 7D       		.byte	0x7d
 1573 02d8 0C       		.sleb128 12
 1574 02d9 1C030000 		.4byte	.LCFI5-.Ltext0
 1575 02dd D0030000 		.4byte	.LFE12-.Ltext0
 1576 02e1 0200     		.2byte	0x2
 1577 02e3 7D       		.byte	0x7d
 1578 02e4 10       		.sleb128 16
 1579 02e5 00000000 		.4byte	0x0
 1580 02e9 00000000 		.4byte	0x0
 1581              	.LLST20:
 1582 02ed 16030000 		.4byte	.LVL56-.Ltext0
 1583 02f1 1E030000 		.4byte	.LVL57-.Ltext0
 1584 02f5 0100     		.2byte	0x1
 1585 02f7 50       		.byte	0x50
 1586 02f8 28030000 		.4byte	.LVL58-.Ltext0
 1587 02fc 66030000 		.4byte	.LVL60-.Ltext0
 1588 0300 0100     		.2byte	0x1
 1589 0302 54       		.byte	0x54
 1590 0303 96030000 		.4byte	.LVL62-.Ltext0
 1591 0307 98030000 		.4byte	.LVL63-.Ltext0
 1592 030b 0100     		.2byte	0x1
 1593 030d 54       		.byte	0x54
 1594 030e A6030000 		.4byte	.LVL64-.Ltext0
 1595 0312 D0030000 		.4byte	.LFE12-.Ltext0
 1596 0316 0100     		.2byte	0x1
 1597 0318 54       		.byte	0x54
 1598 0319 00000000 		.4byte	0x0
 1599 031d 00000000 		.4byte	0x0
 1600              	.LLST21:
 1601 0321 64030000 		.4byte	.LVL59-.Ltext0
 1602 0325 6A030000 		.4byte	.LVL61-.Ltext0
 1603 0329 0100     		.2byte	0x1
 1604 032b 51       		.byte	0x51
 1605 032c 96030000 		.4byte	.LVL62-.Ltext0
 1606 0330 D0030000 		.4byte	.LFE12-.Ltext0
 1607 0334 0100     		.2byte	0x1
 1608 0336 51       		.byte	0x51
 1609 0337 00000000 		.4byte	0x0
 1610 033b 00000000 		.4byte	0x0
 1611              	.LLST22:
ARM GAS  /cygdrive/c/Users/embedded/AppData/Local/Temp/cc3JnFww.s 			page 39


 1612 033f 66030000 		.4byte	.LVL60-.Ltext0
 1613 0343 6A030000 		.4byte	.LVL61-.Ltext0
 1614 0347 0100     		.2byte	0x1
 1615 0349 53       		.byte	0x53
 1616 034a 96030000 		.4byte	.LVL62-.Ltext0
 1617 034e A8030000 		.4byte	.LVL65-.Ltext0
 1618 0352 0100     		.2byte	0x1
 1619 0354 53       		.byte	0x53
 1620 0355 AE030000 		.4byte	.LVL66-.Ltext0
 1621 0359 D0030000 		.4byte	.LFE12-.Ltext0
 1622 035d 0100     		.2byte	0x1
 1623 035f 53       		.byte	0x53
 1624 0360 00000000 		.4byte	0x0
 1625 0364 00000000 		.4byte	0x0
 1626              	.LLST23:
 1627 0368 D0030000 		.4byte	.LFB13-.Ltext0
 1628 036c D2030000 		.4byte	.LCFI6-.Ltext0
 1629 0370 0100     		.2byte	0x1
 1630 0372 5D       		.byte	0x5d
 1631 0373 D2030000 		.4byte	.LCFI6-.Ltext0
 1632 0377 D8030000 		.4byte	.LCFI7-.Ltext0
 1633 037b 0200     		.2byte	0x2
 1634 037d 7D       		.byte	0x7d
 1635 037e 10       		.sleb128 16
 1636 037f D8030000 		.4byte	.LCFI7-.Ltext0
 1637 0383 3C050000 		.4byte	.LFE13-.Ltext0
 1638 0387 0300     		.2byte	0x3
 1639 0389 7D       		.byte	0x7d
 1640 038a E000     		.sleb128 96
 1641 038c 00000000 		.4byte	0x0
 1642 0390 00000000 		.4byte	0x0
 1643              	.LLST24:
 1644 0394 F8030000 		.4byte	.LVL67-.Ltext0
 1645 0398 FC030000 		.4byte	.LVL68-.Ltext0
 1646 039c 0100     		.2byte	0x1
 1647 039e 50       		.byte	0x50
 1648 039f 0C040000 		.4byte	.LVL69-.Ltext0
 1649 03a3 12040000 		.4byte	.LVL70-.Ltext0
 1650 03a7 0100     		.2byte	0x1
 1651 03a9 50       		.byte	0x50
 1652 03aa 12040000 		.4byte	.LVL71-.Ltext0
 1653 03ae 28040000 		.4byte	.LVL72-.Ltext0
 1654 03b2 0100     		.2byte	0x1
 1655 03b4 50       		.byte	0x50
 1656 03b5 30040000 		.4byte	.LVL73-.Ltext0
 1657 03b9 3E040000 		.4byte	.LVL74-.Ltext0
 1658 03bd 0100     		.2byte	0x1
 1659 03bf 50       		.byte	0x50
 1660 03c0 50040000 		.4byte	.LVL75-.Ltext0
 1661 03c4 70040000 		.4byte	.LVL76-.Ltext0
 1662 03c8 0100     		.2byte	0x1
 1663 03ca 50       		.byte	0x50
 1664 03cb 76040000 		.4byte	.LVL77-.Ltext0
 1665 03cf 82040000 		.4byte	.LVL78-.Ltext0
 1666 03d3 0100     		.2byte	0x1
 1667 03d5 50       		.byte	0x50
 1668 03d6 F6040000 		.4byte	.LVL79-.Ltext0
ARM GAS  /cygdrive/c/Users/embedded/AppData/Local/Temp/cc3JnFww.s 			page 40


 1669 03da FC040000 		.4byte	.LVL80-.Ltext0
 1670 03de 0100     		.2byte	0x1
 1671 03e0 50       		.byte	0x50
 1672 03e1 06050000 		.4byte	.LVL81-.Ltext0
 1673 03e5 3C050000 		.4byte	.LFE13-.Ltext0
 1674 03e9 0100     		.2byte	0x1
 1675 03eb 50       		.byte	0x50
 1676 03ec 00000000 		.4byte	0x0
 1677 03f0 00000000 		.4byte	0x0
 1678              		.section	.debug_info
 1679 0000 2B060000 		.4byte	0x62b
 1680 0004 0200     		.2byte	0x2
 1681 0006 00000000 		.4byte	.Ldebug_abbrev0
 1682 000a 04       		.byte	0x4
 1683 000b 01       		.uleb128 0x1
 1684 000c 00000000 		.4byte	.Ldebug_line0
 1685 0010 3C050000 		.4byte	.Letext0
 1686 0014 00000000 		.4byte	.Ltext0
 1687 0018 C3010000 		.4byte	.LASF52
 1688 001c 01       		.byte	0x1
 1689 001d 7F010000 		.4byte	.LASF53
 1690 0021 07010000 		.4byte	.LASF54
 1691 0025 02       		.uleb128 0x2
 1692 0026 74553800 		.ascii	"tU8\000"
 1693 002a 02       		.byte	0x2
 1694 002b 47       		.byte	0x47
 1695 002c 30000000 		.4byte	0x30
 1696 0030 03       		.uleb128 0x3
 1697 0031 B5010000 		.4byte	.LASF0
 1698 0035 01       		.byte	0x1
 1699 0036 08       		.byte	0x8
 1700 0037 03       		.uleb128 0x3
 1701 0038 33010000 		.4byte	.LASF1
 1702 003c 02       		.byte	0x2
 1703 003d 07       		.byte	0x7
 1704 003e 04       		.uleb128 0x4
 1705 003f 5C010000 		.4byte	.LASF2
 1706 0043 02       		.byte	0x2
 1707 0044 49       		.byte	0x49
 1708 0045 49000000 		.4byte	0x49
 1709 0049 03       		.uleb128 0x3
 1710 004a BD000000 		.4byte	.LASF3
 1711 004e 04       		.byte	0x4
 1712 004f 07       		.byte	0x7
 1713 0050 02       		.uleb128 0x2
 1714 0051 74533800 		.ascii	"tS8\000"
 1715 0055 02       		.byte	0x2
 1716 0056 4A       		.byte	0x4a
 1717 0057 5B000000 		.4byte	0x5b
 1718 005b 03       		.uleb128 0x3
 1719 005c 17000000 		.4byte	.LASF4
 1720 0060 01       		.byte	0x1
 1721 0061 06       		.byte	0x6
 1722 0062 03       		.uleb128 0x3
 1723 0063 DC010000 		.4byte	.LASF5
 1724 0067 02       		.byte	0x2
 1725 0068 05       		.byte	0x5
ARM GAS  /cygdrive/c/Users/embedded/AppData/Local/Temp/cc3JnFww.s 			page 41


 1726 0069 04       		.uleb128 0x4
 1727 006a 1B020000 		.4byte	.LASF6
 1728 006e 02       		.byte	0x2
 1729 006f 4C       		.byte	0x4c
 1730 0070 74000000 		.4byte	0x74
 1731 0074 05       		.uleb128 0x5
 1732 0075 696E7400 		.ascii	"int\000"
 1733 0079 04       		.byte	0x4
 1734 007a 05       		.byte	0x5
 1735 007b 04       		.uleb128 0x4
 1736 007c 62000000 		.4byte	.LASF7
 1737 0080 02       		.byte	0x2
 1738 0081 4D       		.byte	0x4d
 1739 0082 30000000 		.4byte	0x30
 1740 0086 06       		.uleb128 0x6
 1741 0087 04       		.byte	0x4
 1742 0088 25000000 		.4byte	0x25
 1743 008c 03       		.uleb128 0x3
 1744 008d E5000000 		.4byte	.LASF8
 1745 0091 04       		.byte	0x4
 1746 0092 07       		.byte	0x7
 1747 0093 03       		.uleb128 0x3
 1748 0094 E5000000 		.4byte	.LASF8
 1749 0098 04       		.byte	0x4
 1750 0099 07       		.byte	0x7
 1751 009a 03       		.uleb128 0x3
 1752 009b 68000000 		.4byte	.LASF9
 1753 009f 04       		.byte	0x4
 1754 00a0 05       		.byte	0x5
 1755 00a1 03       		.uleb128 0x3
 1756 00a2 54000000 		.4byte	.LASF10
 1757 00a6 08       		.byte	0x8
 1758 00a7 05       		.byte	0x5
 1759 00a8 03       		.uleb128 0x3
 1760 00a9 04020000 		.4byte	.LASF11
 1761 00ad 01       		.byte	0x1
 1762 00ae 08       		.byte	0x8
 1763 00af 03       		.uleb128 0x3
 1764 00b0 23000000 		.4byte	.LASF12
 1765 00b4 08       		.byte	0x8
 1766 00b5 07       		.byte	0x7
 1767 00b6 07       		.uleb128 0x7
 1768 00b7 83010000 		.4byte	0x183
 1769 00bb 30       		.byte	0x30
 1770 00bc 03       		.byte	0x3
 1771 00bd 1A       		.byte	0x1a
 1772 00be 08       		.uleb128 0x8
 1773 00bf 40020000 		.4byte	.LASF13
 1774 00c3 03       		.byte	0x3
 1775 00c4 1B       		.byte	0x1b
 1776 00c5 25000000 		.4byte	0x25
 1777 00c9 02       		.byte	0x2
 1778 00ca 23       		.byte	0x23
 1779 00cb 00       		.uleb128 0x0
 1780 00cc 08       		.uleb128 0x8
 1781 00cd 20020000 		.4byte	.LASF14
 1782 00d1 03       		.byte	0x3
ARM GAS  /cygdrive/c/Users/embedded/AppData/Local/Temp/cc3JnFww.s 			page 42


 1783 00d2 1C       		.byte	0x1c
 1784 00d3 25000000 		.4byte	0x25
 1785 00d7 02       		.byte	0x2
 1786 00d8 23       		.byte	0x23
 1787 00d9 01       		.uleb128 0x1
 1788 00da 08       		.uleb128 0x8
 1789 00db EE010000 		.4byte	.LASF15
 1790 00df 03       		.byte	0x3
 1791 00e0 1D       		.byte	0x1d
 1792 00e1 25000000 		.4byte	0x25
 1793 00e5 02       		.byte	0x2
 1794 00e6 23       		.byte	0x23
 1795 00e7 02       		.uleb128 0x2
 1796 00e8 08       		.uleb128 0x8
 1797 00e9 71000000 		.4byte	.LASF16
 1798 00ed 03       		.byte	0x3
 1799 00ee 1E       		.byte	0x1e
 1800 00ef 25000000 		.4byte	0x25
 1801 00f3 02       		.byte	0x2
 1802 00f4 23       		.byte	0x23
 1803 00f5 03       		.uleb128 0x3
 1804 00f6 08       		.uleb128 0x8
 1805 00f7 96000000 		.4byte	.LASF17
 1806 00fb 03       		.byte	0x3
 1807 00fc 1F       		.byte	0x1f
 1808 00fd 25000000 		.4byte	0x25
 1809 0101 02       		.byte	0x2
 1810 0102 23       		.byte	0x23
 1811 0103 04       		.uleb128 0x4
 1812 0104 08       		.uleb128 0x8
 1813 0105 AF000000 		.4byte	.LASF18
 1814 0109 03       		.byte	0x3
 1815 010a 20       		.byte	0x20
 1816 010b 25000000 		.4byte	0x25
 1817 010f 02       		.byte	0x2
 1818 0110 23       		.byte	0x23
 1819 0111 05       		.uleb128 0x5
 1820 0112 08       		.uleb128 0x8
 1821 0113 5A020000 		.4byte	.LASF19
 1822 0117 03       		.byte	0x3
 1823 0118 21       		.byte	0x21
 1824 0119 86000000 		.4byte	0x86
 1825 011d 02       		.byte	0x2
 1826 011e 23       		.byte	0x23
 1827 011f 08       		.uleb128 0x8
 1828 0120 08       		.uleb128 0x8
 1829 0121 CA000000 		.4byte	.LASF20
 1830 0125 03       		.byte	0x3
 1831 0126 22       		.byte	0x22
 1832 0127 25000000 		.4byte	0x25
 1833 012b 02       		.byte	0x2
 1834 012c 23       		.byte	0x23
 1835 012d 0C       		.uleb128 0xc
 1836 012e 08       		.uleb128 0x8
 1837 012f 61010000 		.4byte	.LASF21
 1838 0133 03       		.byte	0x3
 1839 0134 23       		.byte	0x23
ARM GAS  /cygdrive/c/Users/embedded/AppData/Local/Temp/cc3JnFww.s 			page 43


 1840 0135 83010000 		.4byte	0x183
 1841 0139 02       		.byte	0x2
 1842 013a 23       		.byte	0x23
 1843 013b 10       		.uleb128 0x10
 1844 013c 08       		.uleb128 0x8
 1845 013d 69010000 		.4byte	.LASF22
 1846 0141 03       		.byte	0x3
 1847 0142 24       		.byte	0x24
 1848 0143 25000000 		.4byte	0x25
 1849 0147 02       		.byte	0x2
 1850 0148 23       		.byte	0x23
 1851 0149 28       		.uleb128 0x28
 1852 014a 08       		.uleb128 0x8
 1853 014b 48000000 		.4byte	.LASF23
 1854 014f 03       		.byte	0x3
 1855 0150 25       		.byte	0x25
 1856 0151 25000000 		.4byte	0x25
 1857 0155 02       		.byte	0x2
 1858 0156 23       		.byte	0x23
 1859 0157 29       		.uleb128 0x29
 1860 0158 08       		.uleb128 0x8
 1861 0159 25020000 		.4byte	.LASF24
 1862 015d 03       		.byte	0x3
 1863 015e 26       		.byte	0x26
 1864 015f 25000000 		.4byte	0x25
 1865 0163 02       		.byte	0x2
 1866 0164 23       		.byte	0x23
 1867 0165 2A       		.uleb128 0x2a
 1868 0166 08       		.uleb128 0x8
 1869 0167 A2000000 		.4byte	.LASF25
 1870 016b 03       		.byte	0x3
 1871 016c 27       		.byte	0x27
 1872 016d 25000000 		.4byte	0x25
 1873 0171 02       		.byte	0x2
 1874 0172 23       		.byte	0x23
 1875 0173 2B       		.uleb128 0x2b
 1876 0174 08       		.uleb128 0x8
 1877 0175 3A000000 		.4byte	.LASF26
 1878 0179 03       		.byte	0x3
 1879 017a 28       		.byte	0x28
 1880 017b 25000000 		.4byte	0x25
 1881 017f 02       		.byte	0x2
 1882 0180 23       		.byte	0x23
 1883 0181 2C       		.uleb128 0x2c
 1884 0182 00       		.byte	0x0
 1885 0183 09       		.uleb128 0x9
 1886 0184 93010000 		.4byte	0x193
 1887 0188 86000000 		.4byte	0x86
 1888 018c 0A       		.uleb128 0xa
 1889 018d 8C000000 		.4byte	0x8c
 1890 0191 05       		.byte	0x5
 1891 0192 00       		.byte	0x0
 1892 0193 04       		.uleb128 0x4
 1893 0194 AF010000 		.4byte	.LASF27
 1894 0198 03       		.byte	0x3
 1895 0199 29       		.byte	0x29
 1896 019a B6000000 		.4byte	0xb6
ARM GAS  /cygdrive/c/Users/embedded/AppData/Local/Temp/cc3JnFww.s 			page 44


 1897 019e 0B       		.uleb128 0xb
 1898 019f FE010000 		.4byte	0x1fe
 1899 01a3 FC010000 		.4byte	.LASF29
 1900 01a7 01       		.byte	0x1
 1901 01a8 9C       		.byte	0x9c
 1902 01a9 01       		.byte	0x1
 1903 01aa 50000000 		.4byte	0x50
 1904 01ae 00000000 		.4byte	.LFB2
 1905 01b2 98000000 		.4byte	.LFE2
 1906 01b6 00000000 		.4byte	.LLST0
 1907 01ba 0C       		.uleb128 0xc
 1908 01bb 7800     		.ascii	"x\000"
 1909 01bd 01       		.byte	0x1
 1910 01be 9B       		.byte	0x9b
 1911 01bf 69000000 		.4byte	0x69
 1912 01c3 1F000000 		.4byte	.LLST1
 1913 01c7 0C       		.uleb128 0xc
 1914 01c8 7900     		.ascii	"y\000"
 1915 01ca 01       		.byte	0x1
 1916 01cb 9B       		.byte	0x9b
 1917 01cc 69000000 		.4byte	0x69
 1918 01d0 48000000 		.4byte	.LLST2
 1919 01d4 0D       		.uleb128 0xd
 1920 01d5 4E020000 		.4byte	.LASF28
 1921 01d9 01       		.byte	0x1
 1922 01da 9B       		.byte	0x9b
 1923 01db 69000000 		.4byte	0x69
 1924 01df 66000000 		.4byte	.LLST3
 1925 01e3 0E       		.uleb128 0xe
 1926 01e4 6900     		.ascii	"i\000"
 1927 01e6 01       		.byte	0x1
 1928 01e7 9D       		.byte	0x9d
 1929 01e8 69000000 		.4byte	0x69
 1930 01ec 84000000 		.4byte	.LLST4
 1931 01f0 0E       		.uleb128 0xe
 1932 01f1 6A00     		.ascii	"j\000"
 1933 01f3 01       		.byte	0x1
 1934 01f4 9D       		.byte	0x9d
 1935 01f5 69000000 		.4byte	0x69
 1936 01f9 B8000000 		.4byte	.LLST5
 1937 01fd 00       		.byte	0x0
 1938 01fe 0F       		.uleb128 0xf
 1939 01ff 5A020000 		.4byte	0x25a
 1940 0203 A2010000 		.4byte	.LASF30
 1941 0207 01       		.byte	0x1
 1942 0208 CD       		.byte	0xcd
 1943 0209 01       		.byte	0x1
 1944 020a 98000000 		.4byte	.LFB4
 1945 020e E8000000 		.4byte	.LFE4
 1946 0212 EC000000 		.4byte	.LLST6
 1947 0216 0D       		.uleb128 0xd
 1948 0217 4E020000 		.4byte	.LASF28
 1949 021b 01       		.byte	0x1
 1950 021c CC       		.byte	0xcc
 1951 021d 69000000 		.4byte	0x69
 1952 0221 0B010000 		.4byte	.LLST7
 1953 0225 0C       		.uleb128 0xc
ARM GAS  /cygdrive/c/Users/embedded/AppData/Local/Temp/cc3JnFww.s 			page 45


 1954 0226 7800     		.ascii	"x\000"
 1955 0228 01       		.byte	0x1
 1956 0229 CC       		.byte	0xcc
 1957 022a 69000000 		.4byte	0x69
 1958 022e 29010000 		.4byte	.LLST8
 1959 0232 0C       		.uleb128 0xc
 1960 0233 7900     		.ascii	"y\000"
 1961 0235 01       		.byte	0x1
 1962 0236 CC       		.byte	0xcc
 1963 0237 69000000 		.4byte	0x69
 1964 023b 47010000 		.4byte	.LLST9
 1965 023f 0E       		.uleb128 0xe
 1966 0240 6900     		.ascii	"i\000"
 1967 0242 01       		.byte	0x1
 1968 0243 CE       		.byte	0xce
 1969 0244 69000000 		.4byte	0x69
 1970 0248 65010000 		.4byte	.LLST10
 1971 024c 0E       		.uleb128 0xe
 1972 024d 6A00     		.ascii	"j\000"
 1973 024f 01       		.byte	0x1
 1974 0250 CE       		.byte	0xce
 1975 0251 69000000 		.4byte	0x69
 1976 0255 78010000 		.4byte	.LLST11
 1977 0259 00       		.byte	0x0
 1978 025a 10       		.uleb128 0x10
 1979 025b 7A020000 		.4byte	0x27a
 1980 025f 8D000000 		.4byte	.LASF31
 1981 0263 01       		.byte	0x1
 1982 0264 B9       		.byte	0xb9
 1983 0265 01       		.byte	0x1
 1984 0266 01       		.byte	0x1
 1985 0267 11       		.uleb128 0x11
 1986 0268 6900     		.ascii	"i\000"
 1987 026a 01       		.byte	0x1
 1988 026b BA       		.byte	0xba
 1989 026c 69000000 		.4byte	0x69
 1990 0270 11       		.uleb128 0x11
 1991 0271 6A00     		.ascii	"j\000"
 1992 0273 01       		.byte	0x1
 1993 0274 BA       		.byte	0xba
 1994 0275 69000000 		.4byte	0x69
 1995 0279 00       		.byte	0x0
 1996 027a 10       		.uleb128 0x10
 1997 027b B7020000 		.4byte	0x2b7
 1998 027f CF010000 		.4byte	.LASF32
 1999 0283 01       		.byte	0x1
 2000 0284 DF       		.byte	0xdf
 2001 0285 01       		.byte	0x1
 2002 0286 01       		.byte	0x1
 2003 0287 12       		.uleb128 0x12
 2004 0288 4E020000 		.4byte	.LASF28
 2005 028c 01       		.byte	0x1
 2006 028d DE       		.byte	0xde
 2007 028e 69000000 		.4byte	0x69
 2008 0292 13       		.uleb128 0x13
 2009 0293 7800     		.ascii	"x\000"
 2010 0295 01       		.byte	0x1
ARM GAS  /cygdrive/c/Users/embedded/AppData/Local/Temp/cc3JnFww.s 			page 46


 2011 0296 DE       		.byte	0xde
 2012 0297 69000000 		.4byte	0x69
 2013 029b 13       		.uleb128 0x13
 2014 029c 7900     		.ascii	"y\000"
 2015 029e 01       		.byte	0x1
 2016 029f DE       		.byte	0xde
 2017 02a0 69000000 		.4byte	0x69
 2018 02a4 11       		.uleb128 0x11
 2019 02a5 6900     		.ascii	"i\000"
 2020 02a7 01       		.byte	0x1
 2021 02a8 E0       		.byte	0xe0
 2022 02a9 69000000 		.4byte	0x69
 2023 02ad 11       		.uleb128 0x11
 2024 02ae 6A00     		.ascii	"j\000"
 2025 02b0 01       		.byte	0x1
 2026 02b1 E0       		.byte	0xe0
 2027 02b2 69000000 		.4byte	0x69
 2028 02b6 00       		.byte	0x0
 2029 02b7 14       		.uleb128 0x14
 2030 02b8 F7000000 		.4byte	.LASF55
 2031 02bc 01       		.byte	0x1
 2032 02bd 4F01     		.2byte	0x14f
 2033 02bf 01       		.byte	0x1
 2034 02c0 01       		.byte	0x1
 2035 02c1 15       		.uleb128 0x15
 2036 02c2 DE020000 		.4byte	0x2de
 2037 02c6 45020000 		.4byte	.LASF33
 2038 02ca 01       		.byte	0x1
 2039 02cb 3B01     		.2byte	0x13b
 2040 02cd 01       		.byte	0x1
 2041 02ce A8000000 		.4byte	0xa8
 2042 02d2 01       		.byte	0x1
 2043 02d3 16       		.uleb128 0x16
 2044 02d4 6900     		.ascii	"i\000"
 2045 02d6 01       		.byte	0x1
 2046 02d7 3C01     		.2byte	0x13c
 2047 02d9 69000000 		.4byte	0x69
 2048 02dd 00       		.byte	0x0
 2049 02de 17       		.uleb128 0x17
 2050 02df 0B030000 		.4byte	0x30b
 2051 02e3 76000000 		.4byte	.LASF34
 2052 02e7 01       		.byte	0x1
 2053 02e8 1E01     		.2byte	0x11e
 2054 02ea 01       		.byte	0x1
 2055 02eb 01       		.byte	0x1
 2056 02ec 16       		.uleb128 0x16
 2057 02ed 6900     		.ascii	"i\000"
 2058 02ef 01       		.byte	0x1
 2059 02f0 1F01     		.2byte	0x11f
 2060 02f2 69000000 		.4byte	0x69
 2061 02f6 16       		.uleb128 0x16
 2062 02f7 6A00     		.ascii	"j\000"
 2063 02f9 01       		.byte	0x1
 2064 02fa 1F01     		.2byte	0x11f
 2065 02fc 69000000 		.4byte	0x69
 2066 0300 16       		.uleb128 0x16
 2067 0301 6B00     		.ascii	"k\000"
ARM GAS  /cygdrive/c/Users/embedded/AppData/Local/Temp/cc3JnFww.s 			page 47


 2068 0303 01       		.byte	0x1
 2069 0304 1F01     		.2byte	0x11f
 2070 0306 69000000 		.4byte	0x69
 2071 030a 00       		.byte	0x0
 2072 030b 18       		.uleb128 0x18
 2073 030c 2F030000 		.4byte	0x32f
 2074 0310 71010000 		.4byte	.LASF35
 2075 0314 01       		.byte	0x1
 2076 0315 F1       		.byte	0xf1
 2077 0316 01       		.byte	0x1
 2078 0317 A8000000 		.4byte	0xa8
 2079 031b 01       		.byte	0x1
 2080 031c 13       		.uleb128 0x13
 2081 031d 6A00     		.ascii	"j\000"
 2082 031f 01       		.byte	0x1
 2083 0320 F0       		.byte	0xf0
 2084 0321 69000000 		.4byte	0x69
 2085 0325 11       		.uleb128 0x11
 2086 0326 6900     		.ascii	"i\000"
 2087 0328 01       		.byte	0x1
 2088 0329 F2       		.byte	0xf2
 2089 032a 69000000 		.4byte	0x69
 2090 032e 00       		.byte	0x0
 2091 032f 17       		.uleb128 0x17
 2092 0330 4A030000 		.4byte	0x34a
 2093 0334 46010000 		.4byte	.LASF36
 2094 0338 01       		.byte	0x1
 2095 0339 0401     		.2byte	0x104
 2096 033b 01       		.byte	0x1
 2097 033c 01       		.byte	0x1
 2098 033d 16       		.uleb128 0x16
 2099 033e 73747200 		.ascii	"str\000"
 2100 0342 01       		.byte	0x1
 2101 0343 0501     		.2byte	0x105
 2102 0345 4A030000 		.4byte	0x34a
 2103 0349 00       		.byte	0x0
 2104 034a 09       		.uleb128 0x9
 2105 034b 5A030000 		.4byte	0x35a
 2106 034f 25000000 		.4byte	0x25
 2107 0353 0A       		.uleb128 0xa
 2108 0354 8C000000 		.4byte	0x8c
 2109 0358 03       		.byte	0x3
 2110 0359 00       		.byte	0x0
 2111 035a 19       		.uleb128 0x19
 2112 035b 97040000 		.4byte	0x497
 2113 035f 00000000 		.4byte	.LASF37
 2114 0363 01       		.byte	0x1
 2115 0364 6501     		.2byte	0x165
 2116 0366 01       		.byte	0x1
 2117 0367 E8000000 		.4byte	.LFB11
 2118 036b 14030000 		.4byte	.LFE11
 2119 036f 96010000 		.4byte	.LLST12
 2120 0373 1A       		.uleb128 0x1a
 2121 0374 9C030000 		.4byte	0x39c
 2122 0378 5A020000 		.4byte	0x25a
 2123 037c 02010000 		.4byte	.LBB16
 2124 0380 42010000 		.4byte	.LBE16
ARM GAS  /cygdrive/c/Users/embedded/AppData/Local/Temp/cc3JnFww.s 			page 48


 2125 0384 01       		.byte	0x1
 2126 0385 6701     		.2byte	0x167
 2127 0387 1B       		.uleb128 0x1b
 2128 0388 02010000 		.4byte	.LBB17
 2129 038c 42010000 		.4byte	.LBE17
 2130 0390 1C       		.uleb128 0x1c
 2131 0391 67020000 		.4byte	0x267
 2132 0395 1C       		.uleb128 0x1c
 2133 0396 70020000 		.4byte	0x270
 2134 039a 00       		.byte	0x0
 2135 039b 00       		.byte	0x0
 2136 039c 1A       		.uleb128 0x1a
 2137 039d DC030000 		.4byte	0x3dc
 2138 03a1 7A020000 		.4byte	0x27a
 2139 03a5 56010000 		.4byte	.LBB18
 2140 03a9 72010000 		.4byte	.LBE18
 2141 03ad 01       		.byte	0x1
 2142 03ae 6801     		.2byte	0x168
 2143 03b0 1D       		.uleb128 0x1d
 2144 03b1 9B020000 		.4byte	0x29b
 2145 03b5 1D       		.uleb128 0x1d
 2146 03b6 92020000 		.4byte	0x292
 2147 03ba 1D       		.uleb128 0x1d
 2148 03bb 87020000 		.4byte	0x287
 2149 03bf 1B       		.uleb128 0x1b
 2150 03c0 56010000 		.4byte	.LBB19
 2151 03c4 72010000 		.4byte	.LBE19
 2152 03c8 1E       		.uleb128 0x1e
 2153 03c9 A4020000 		.4byte	0x2a4
 2154 03cd C1010000 		.4byte	.LLST13
 2155 03d1 1E       		.uleb128 0x1e
 2156 03d2 AD020000 		.4byte	0x2ad
 2157 03d6 DF010000 		.4byte	.LLST14
 2158 03da 00       		.byte	0x0
 2159 03db 00       		.byte	0x0
 2160 03dc 1F       		.uleb128 0x1f
 2161 03dd B7020000 		.4byte	0x2b7
 2162 03e1 72010000 		.4byte	.LBB20
 2163 03e5 A4010000 		.4byte	.LBE20
 2164 03e9 01       		.byte	0x1
 2165 03ea 6D01     		.2byte	0x16d
 2166 03ec 1A       		.uleb128 0x1a
 2167 03ed 14040000 		.4byte	0x414
 2168 03f1 C1020000 		.4byte	0x2c1
 2169 03f5 F8010000 		.4byte	.LBB22
 2170 03f9 10020000 		.4byte	.LBE22
 2171 03fd 01       		.byte	0x1
 2172 03fe 7F01     		.2byte	0x17f
 2173 0400 1B       		.uleb128 0x1b
 2174 0401 04020000 		.4byte	.LBB23
 2175 0405 10020000 		.4byte	.LBE23
 2176 0409 1E       		.uleb128 0x1e
 2177 040a D3020000 		.4byte	0x2d3
 2178 040e 29020000 		.4byte	.LLST15
 2179 0412 00       		.byte	0x0
 2180 0413 00       		.byte	0x0
 2181 0414 20       		.uleb128 0x20
ARM GAS  /cygdrive/c/Users/embedded/AppData/Local/Temp/cc3JnFww.s 			page 49


 2182 0415 DE020000 		.4byte	0x2de
 2183 0419 1A020000 		.4byte	.LBB24
 2184 041d E2020000 		.4byte	.LBE24
 2185 0421 01       		.byte	0x1
 2186 0422 8401     		.2byte	0x184
 2187 0424 1B       		.uleb128 0x1b
 2188 0425 1A020000 		.4byte	.LBB25
 2189 0429 E2020000 		.4byte	.LBE25
 2190 042d 1E       		.uleb128 0x1e
 2191 042e EC020000 		.4byte	0x2ec
 2192 0432 52020000 		.4byte	.LLST16
 2193 0436 1C       		.uleb128 0x1c
 2194 0437 F6020000 		.4byte	0x2f6
 2195 043b 1E       		.uleb128 0x1e
 2196 043c 00030000 		.4byte	0x300
 2197 0440 65020000 		.4byte	.LLST17
 2198 0444 1A       		.uleb128 0x1a
 2199 0445 71040000 		.4byte	0x471
 2200 0449 0B030000 		.4byte	0x30b
 2201 044d 1A020000 		.4byte	.LBB26
 2202 0451 2C020000 		.4byte	.LBE26
 2203 0455 01       		.byte	0x1
 2204 0456 2401     		.2byte	0x124
 2205 0458 1D       		.uleb128 0x1d
 2206 0459 1C030000 		.4byte	0x31c
 2207 045d 1B       		.uleb128 0x1b
 2208 045e 1A020000 		.4byte	.LBB27
 2209 0462 2C020000 		.4byte	.LBE27
 2210 0466 1E       		.uleb128 0x1e
 2211 0467 25030000 		.4byte	0x325
 2212 046b 83020000 		.4byte	.LLST18
 2213 046f 00       		.byte	0x0
 2214 0470 00       		.byte	0x0
 2215 0471 20       		.uleb128 0x20
 2216 0472 2F030000 		.4byte	0x32f
 2217 0476 54020000 		.4byte	.LBB28
 2218 047a A8020000 		.4byte	.LBE28
 2219 047e 01       		.byte	0x1
 2220 047f 2D01     		.2byte	0x12d
 2221 0481 1B       		.uleb128 0x1b
 2222 0482 54020000 		.4byte	.LBB29
 2223 0486 A8020000 		.4byte	.LBE29
 2224 048a 21       		.uleb128 0x21
 2225 048b 3D030000 		.4byte	0x33d
 2226 048f 02       		.byte	0x2
 2227 0490 91       		.byte	0x91
 2228 0491 68       		.sleb128 -24
 2229 0492 00       		.byte	0x0
 2230 0493 00       		.byte	0x0
 2231 0494 00       		.byte	0x0
 2232 0495 00       		.byte	0x0
 2233 0496 00       		.byte	0x0
 2234 0497 19       		.uleb128 0x19
 2235 0498 DD040000 		.4byte	0x4dd
 2236 049c 8D010000 		.4byte	.LASF38
 2237 04a0 01       		.byte	0x1
 2238 04a1 9101     		.2byte	0x191
ARM GAS  /cygdrive/c/Users/embedded/AppData/Local/Temp/cc3JnFww.s 			page 50


 2239 04a3 01       		.byte	0x1
 2240 04a4 14030000 		.4byte	.LFB12
 2241 04a8 D0030000 		.4byte	.LFE12
 2242 04ac C2020000 		.4byte	.LLST19
 2243 04b0 22       		.uleb128 0x22
 2244 04b1 36020000 		.4byte	.LASF39
 2245 04b5 01       		.byte	0x1
 2246 04b6 9001     		.2byte	0x190
 2247 04b8 7B000000 		.4byte	0x7b
 2248 04bc ED020000 		.4byte	.LLST20
 2249 04c0 23       		.uleb128 0x23
 2250 04c1 6900     		.ascii	"i\000"
 2251 04c3 01       		.byte	0x1
 2252 04c4 9201     		.2byte	0x192
 2253 04c6 69000000 		.4byte	0x69
 2254 04ca 21030000 		.4byte	.LLST21
 2255 04ce 23       		.uleb128 0x23
 2256 04cf 6A00     		.ascii	"j\000"
 2257 04d1 01       		.byte	0x1
 2258 04d2 9201     		.2byte	0x192
 2259 04d4 69000000 		.4byte	0x69
 2260 04d8 3F030000 		.4byte	.LLST22
 2261 04dc 00       		.byte	0x0
 2262 04dd 24       		.uleb128 0x24
 2263 04de 2B050000 		.4byte	0x52b
 2264 04e2 01       		.byte	0x1
 2265 04e3 D9000000 		.4byte	.LASF56
 2266 04e7 01       		.byte	0x1
 2267 04e8 B901     		.2byte	0x1b9
 2268 04ea 01       		.byte	0x1
 2269 04eb D0030000 		.4byte	.LFB13
 2270 04ef 3C050000 		.4byte	.LFE13
 2271 04f3 68030000 		.4byte	.LLST23
 2272 04f7 1B       		.uleb128 0x1b
 2273 04f8 F8030000 		.4byte	.LBB30
 2274 04fc 06050000 		.4byte	.LBE30
 2275 0500 25       		.uleb128 0x25
 2276 0501 14020000 		.4byte	.LASF40
 2277 0505 01       		.byte	0x1
 2278 0506 C301     		.2byte	0x1c3
 2279 0508 25000000 		.4byte	0x25
 2280 050c 94030000 		.4byte	.LLST24
 2281 0510 1B       		.uleb128 0x1b
 2282 0511 8A040000 		.4byte	.LBB31
 2283 0515 02050000 		.4byte	.LBE31
 2284 0519 26       		.uleb128 0x26
 2285 051a 31020000 		.4byte	.LASF41
 2286 051e 01       		.byte	0x1
 2287 051f F601     		.2byte	0x1f6
 2288 0521 93010000 		.4byte	0x193
 2289 0525 02       		.byte	0x2
 2290 0526 91       		.byte	0x91
 2291 0527 40       		.sleb128 -64
 2292 0528 00       		.byte	0x0
 2293 0529 00       		.byte	0x0
 2294 052a 00       		.byte	0x0
 2295 052b 27       		.uleb128 0x27
ARM GAS  /cygdrive/c/Users/embedded/AppData/Local/Temp/cc3JnFww.s 			page 51


 2296 052c 97010000 		.4byte	.LASF42
 2297 0530 01       		.byte	0x1
 2298 0531 2E       		.byte	0x2e
 2299 0532 25000000 		.4byte	0x25
 2300 0536 05       		.byte	0x5
 2301 0537 03       		.byte	0x3
 2302 0538 00000000 		.4byte	gameStatus
 2303 053c 27       		.uleb128 0x27
 2304 053d 54020000 		.4byte	.LASF43
 2305 0541 01       		.byte	0x1
 2306 0542 2F       		.byte	0x2f
 2307 0543 25000000 		.4byte	0x25
 2308 0547 05       		.byte	0x5
 2309 0548 03       		.byte	0x3
 2310 0549 01000000 		.4byte	score
 2311 054d 09       		.uleb128 0x9
 2312 054e 5D050000 		.4byte	0x55d
 2313 0552 69000000 		.4byte	0x69
 2314 0556 0A       		.uleb128 0xa
 2315 0557 8C000000 		.4byte	0x8c
 2316 055b 12       		.byte	0x12
 2317 055c 00       		.byte	0x0
 2318 055d 27       		.uleb128 0x27
 2319 055e 87000000 		.4byte	.LASF44
 2320 0562 01       		.byte	0x1
 2321 0563 31       		.byte	0x31
 2322 0564 6E050000 		.4byte	0x56e
 2323 0568 05       		.byte	0x5
 2324 0569 03       		.byte	0x3
 2325 056a 00000000 		.4byte	shift
 2326 056e 28       		.uleb128 0x28
 2327 056f 4D050000 		.4byte	0x54d
 2328 0573 09       		.uleb128 0x9
 2329 0574 89050000 		.4byte	0x589
 2330 0578 69000000 		.4byte	0x69
 2331 057c 0A       		.uleb128 0xa
 2332 057d 8C000000 		.4byte	0x8c
 2333 0581 09       		.byte	0x9
 2334 0582 0A       		.uleb128 0xa
 2335 0583 8C000000 		.4byte	0x8c
 2336 0587 0F       		.byte	0xf
 2337 0588 00       		.byte	0x0
 2338 0589 27       		.uleb128 0x27
 2339 058a 81000000 		.4byte	.LASF45
 2340 058e 01       		.byte	0x1
 2341 058f 32       		.byte	0x32
 2342 0590 73050000 		.4byte	0x573
 2343 0594 05       		.byte	0x5
 2344 0595 03       		.byte	0x3
 2345 0596 04000000 		.4byte	board
 2346 059a 27       		.uleb128 0x27
 2347 059b 0C000000 		.4byte	.LASF46
 2348 059f 01       		.byte	0x1
 2349 05a0 33       		.byte	0x33
 2350 05a1 69000000 		.4byte	0x69
 2351 05a5 05       		.byte	0x5
 2352 05a6 03       		.byte	0x3
ARM GAS  /cygdrive/c/Users/embedded/AppData/Local/Temp/cc3JnFww.s 			page 52


 2353 05a7 84020000 		.4byte	currFigure
 2354 05ab 27       		.uleb128 0x27
 2355 05ac F3010000 		.4byte	.LASF47
 2356 05b0 01       		.byte	0x1
 2357 05b1 34       		.byte	0x34
 2358 05b2 69000000 		.4byte	0x69
 2359 05b6 05       		.byte	0x5
 2360 05b7 03       		.byte	0x3
 2361 05b8 88020000 		.4byte	currXpos
 2362 05bc 27       		.uleb128 0x27
 2363 05bd 76010000 		.4byte	.LASF48
 2364 05c1 01       		.byte	0x1
 2365 05c2 35       		.byte	0x35
 2366 05c3 69000000 		.4byte	0x69
 2367 05c7 05       		.byte	0x5
 2368 05c8 03       		.byte	0x3
 2369 05c9 8C020000 		.4byte	currYpos
 2370 05cd 27       		.uleb128 0x27
 2371 05ce 09020000 		.4byte	.LASF49
 2372 05d2 01       		.byte	0x1
 2373 05d3 36       		.byte	0x36
 2374 05d4 DE050000 		.4byte	0x5de
 2375 05d8 05       		.byte	0x5
 2376 05d9 03       		.byte	0x3
 2377 05da 90020000 		.4byte	lastUpdate
 2378 05de 29       		.uleb128 0x29
 2379 05df 3E000000 		.4byte	0x3e
 2380 05e3 27       		.uleb128 0x27
 2381 05e4 50010000 		.4byte	.LASF50
 2382 05e8 01       		.byte	0x1
 2383 05e9 37       		.byte	0x37
 2384 05ea DE050000 		.4byte	0x5de
 2385 05ee 05       		.byte	0x5
 2386 05ef 03       		.byte	0x3
 2387 05f0 94020000 		.4byte	delayTimeMs
 2388 05f4 2A       		.uleb128 0x2a
 2389 05f5 6D7300   		.ascii	"ms\000"
 2390 05f8 01       		.byte	0x1
 2391 05f9 3D       		.byte	0x3d
 2392 05fa DE050000 		.4byte	0x5de
 2393 05fe 01       		.byte	0x1
 2394 05ff 01       		.byte	0x1
 2395 0600 09       		.uleb128 0x9
 2396 0601 1C060000 		.4byte	0x61c
 2397 0605 A8000000 		.4byte	0xa8
 2398 0609 0A       		.uleb128 0xa
 2399 060a 8C000000 		.4byte	0x8c
 2400 060e 12       		.byte	0x12
 2401 060f 0A       		.uleb128 0xa
 2402 0610 8C000000 		.4byte	0x8c
 2403 0614 03       		.byte	0x3
 2404 0615 0A       		.uleb128 0xa
 2405 0616 8C000000 		.4byte	0x8c
 2406 061a 03       		.byte	0x3
 2407 061b 00       		.byte	0x0
 2408 061c 2B       		.uleb128 0x2b
 2409 061d E6010000 		.4byte	.LASF51
ARM GAS  /cygdrive/c/Users/embedded/AppData/Local/Temp/cc3JnFww.s 			page 53


 2410 0621 01       		.byte	0x1
 2411 0622 40       		.byte	0x40
 2412 0623 00060000 		.4byte	0x600
 2413 0627 01       		.byte	0x1
 2414 0628 05       		.byte	0x5
 2415 0629 03       		.byte	0x3
 2416 062a 00000000 		.4byte	figures
 2417 062e 00       		.byte	0x0
 2418              		.section	.debug_abbrev
 2419 0000 01       		.uleb128 0x1
 2420 0001 11       		.uleb128 0x11
 2421 0002 01       		.byte	0x1
 2422 0003 10       		.uleb128 0x10
 2423 0004 06       		.uleb128 0x6
 2424 0005 12       		.uleb128 0x12
 2425 0006 01       		.uleb128 0x1
 2426 0007 11       		.uleb128 0x11
 2427 0008 01       		.uleb128 0x1
 2428 0009 25       		.uleb128 0x25
 2429 000a 0E       		.uleb128 0xe
 2430 000b 13       		.uleb128 0x13
 2431 000c 0B       		.uleb128 0xb
 2432 000d 03       		.uleb128 0x3
 2433 000e 0E       		.uleb128 0xe
 2434 000f 1B       		.uleb128 0x1b
 2435 0010 0E       		.uleb128 0xe
 2436 0011 00       		.byte	0x0
 2437 0012 00       		.byte	0x0
 2438 0013 02       		.uleb128 0x2
 2439 0014 16       		.uleb128 0x16
 2440 0015 00       		.byte	0x0
 2441 0016 03       		.uleb128 0x3
 2442 0017 08       		.uleb128 0x8
 2443 0018 3A       		.uleb128 0x3a
 2444 0019 0B       		.uleb128 0xb
 2445 001a 3B       		.uleb128 0x3b
 2446 001b 0B       		.uleb128 0xb
 2447 001c 49       		.uleb128 0x49
 2448 001d 13       		.uleb128 0x13
 2449 001e 00       		.byte	0x0
 2450 001f 00       		.byte	0x0
 2451 0020 03       		.uleb128 0x3
 2452 0021 24       		.uleb128 0x24
 2453 0022 00       		.byte	0x0
 2454 0023 03       		.uleb128 0x3
 2455 0024 0E       		.uleb128 0xe
 2456 0025 0B       		.uleb128 0xb
 2457 0026 0B       		.uleb128 0xb
 2458 0027 3E       		.uleb128 0x3e
 2459 0028 0B       		.uleb128 0xb
 2460 0029 00       		.byte	0x0
 2461 002a 00       		.byte	0x0
 2462 002b 04       		.uleb128 0x4
 2463 002c 16       		.uleb128 0x16
 2464 002d 00       		.byte	0x0
 2465 002e 03       		.uleb128 0x3
 2466 002f 0E       		.uleb128 0xe
ARM GAS  /cygdrive/c/Users/embedded/AppData/Local/Temp/cc3JnFww.s 			page 54


 2467 0030 3A       		.uleb128 0x3a
 2468 0031 0B       		.uleb128 0xb
 2469 0032 3B       		.uleb128 0x3b
 2470 0033 0B       		.uleb128 0xb
 2471 0034 49       		.uleb128 0x49
 2472 0035 13       		.uleb128 0x13
 2473 0036 00       		.byte	0x0
 2474 0037 00       		.byte	0x0
 2475 0038 05       		.uleb128 0x5
 2476 0039 24       		.uleb128 0x24
 2477 003a 00       		.byte	0x0
 2478 003b 03       		.uleb128 0x3
 2479 003c 08       		.uleb128 0x8
 2480 003d 0B       		.uleb128 0xb
 2481 003e 0B       		.uleb128 0xb
 2482 003f 3E       		.uleb128 0x3e
 2483 0040 0B       		.uleb128 0xb
 2484 0041 00       		.byte	0x0
 2485 0042 00       		.byte	0x0
 2486 0043 06       		.uleb128 0x6
 2487 0044 0F       		.uleb128 0xf
 2488 0045 00       		.byte	0x0
 2489 0046 0B       		.uleb128 0xb
 2490 0047 0B       		.uleb128 0xb
 2491 0048 49       		.uleb128 0x49
 2492 0049 13       		.uleb128 0x13
 2493 004a 00       		.byte	0x0
 2494 004b 00       		.byte	0x0
 2495 004c 07       		.uleb128 0x7
 2496 004d 13       		.uleb128 0x13
 2497 004e 01       		.byte	0x1
 2498 004f 01       		.uleb128 0x1
 2499 0050 13       		.uleb128 0x13
 2500 0051 0B       		.uleb128 0xb
 2501 0052 0B       		.uleb128 0xb
 2502 0053 3A       		.uleb128 0x3a
 2503 0054 0B       		.uleb128 0xb
 2504 0055 3B       		.uleb128 0x3b
 2505 0056 0B       		.uleb128 0xb
 2506 0057 00       		.byte	0x0
 2507 0058 00       		.byte	0x0
 2508 0059 08       		.uleb128 0x8
 2509 005a 0D       		.uleb128 0xd
 2510 005b 00       		.byte	0x0
 2511 005c 03       		.uleb128 0x3
 2512 005d 0E       		.uleb128 0xe
 2513 005e 3A       		.uleb128 0x3a
 2514 005f 0B       		.uleb128 0xb
 2515 0060 3B       		.uleb128 0x3b
 2516 0061 0B       		.uleb128 0xb
 2517 0062 49       		.uleb128 0x49
 2518 0063 13       		.uleb128 0x13
 2519 0064 38       		.uleb128 0x38
 2520 0065 0A       		.uleb128 0xa
 2521 0066 00       		.byte	0x0
 2522 0067 00       		.byte	0x0
 2523 0068 09       		.uleb128 0x9
ARM GAS  /cygdrive/c/Users/embedded/AppData/Local/Temp/cc3JnFww.s 			page 55


 2524 0069 01       		.uleb128 0x1
 2525 006a 01       		.byte	0x1
 2526 006b 01       		.uleb128 0x1
 2527 006c 13       		.uleb128 0x13
 2528 006d 49       		.uleb128 0x49
 2529 006e 13       		.uleb128 0x13
 2530 006f 00       		.byte	0x0
 2531 0070 00       		.byte	0x0
 2532 0071 0A       		.uleb128 0xa
 2533 0072 21       		.uleb128 0x21
 2534 0073 00       		.byte	0x0
 2535 0074 49       		.uleb128 0x49
 2536 0075 13       		.uleb128 0x13
 2537 0076 2F       		.uleb128 0x2f
 2538 0077 0B       		.uleb128 0xb
 2539 0078 00       		.byte	0x0
 2540 0079 00       		.byte	0x0
 2541 007a 0B       		.uleb128 0xb
 2542 007b 2E       		.uleb128 0x2e
 2543 007c 01       		.byte	0x1
 2544 007d 01       		.uleb128 0x1
 2545 007e 13       		.uleb128 0x13
 2546 007f 03       		.uleb128 0x3
 2547 0080 0E       		.uleb128 0xe
 2548 0081 3A       		.uleb128 0x3a
 2549 0082 0B       		.uleb128 0xb
 2550 0083 3B       		.uleb128 0x3b
 2551 0084 0B       		.uleb128 0xb
 2552 0085 27       		.uleb128 0x27
 2553 0086 0C       		.uleb128 0xc
 2554 0087 49       		.uleb128 0x49
 2555 0088 13       		.uleb128 0x13
 2556 0089 11       		.uleb128 0x11
 2557 008a 01       		.uleb128 0x1
 2558 008b 12       		.uleb128 0x12
 2559 008c 01       		.uleb128 0x1
 2560 008d 40       		.uleb128 0x40
 2561 008e 06       		.uleb128 0x6
 2562 008f 00       		.byte	0x0
 2563 0090 00       		.byte	0x0
 2564 0091 0C       		.uleb128 0xc
 2565 0092 05       		.uleb128 0x5
 2566 0093 00       		.byte	0x0
 2567 0094 03       		.uleb128 0x3
 2568 0095 08       		.uleb128 0x8
 2569 0096 3A       		.uleb128 0x3a
 2570 0097 0B       		.uleb128 0xb
 2571 0098 3B       		.uleb128 0x3b
 2572 0099 0B       		.uleb128 0xb
 2573 009a 49       		.uleb128 0x49
 2574 009b 13       		.uleb128 0x13
 2575 009c 02       		.uleb128 0x2
 2576 009d 06       		.uleb128 0x6
 2577 009e 00       		.byte	0x0
 2578 009f 00       		.byte	0x0
 2579 00a0 0D       		.uleb128 0xd
 2580 00a1 05       		.uleb128 0x5
ARM GAS  /cygdrive/c/Users/embedded/AppData/Local/Temp/cc3JnFww.s 			page 56


 2581 00a2 00       		.byte	0x0
 2582 00a3 03       		.uleb128 0x3
 2583 00a4 0E       		.uleb128 0xe
 2584 00a5 3A       		.uleb128 0x3a
 2585 00a6 0B       		.uleb128 0xb
 2586 00a7 3B       		.uleb128 0x3b
 2587 00a8 0B       		.uleb128 0xb
 2588 00a9 49       		.uleb128 0x49
 2589 00aa 13       		.uleb128 0x13
 2590 00ab 02       		.uleb128 0x2
 2591 00ac 06       		.uleb128 0x6
 2592 00ad 00       		.byte	0x0
 2593 00ae 00       		.byte	0x0
 2594 00af 0E       		.uleb128 0xe
 2595 00b0 34       		.uleb128 0x34
 2596 00b1 00       		.byte	0x0
 2597 00b2 03       		.uleb128 0x3
 2598 00b3 08       		.uleb128 0x8
 2599 00b4 3A       		.uleb128 0x3a
 2600 00b5 0B       		.uleb128 0xb
 2601 00b6 3B       		.uleb128 0x3b
 2602 00b7 0B       		.uleb128 0xb
 2603 00b8 49       		.uleb128 0x49
 2604 00b9 13       		.uleb128 0x13
 2605 00ba 02       		.uleb128 0x2
 2606 00bb 06       		.uleb128 0x6
 2607 00bc 00       		.byte	0x0
 2608 00bd 00       		.byte	0x0
 2609 00be 0F       		.uleb128 0xf
 2610 00bf 2E       		.uleb128 0x2e
 2611 00c0 01       		.byte	0x1
 2612 00c1 01       		.uleb128 0x1
 2613 00c2 13       		.uleb128 0x13
 2614 00c3 03       		.uleb128 0x3
 2615 00c4 0E       		.uleb128 0xe
 2616 00c5 3A       		.uleb128 0x3a
 2617 00c6 0B       		.uleb128 0xb
 2618 00c7 3B       		.uleb128 0x3b
 2619 00c8 0B       		.uleb128 0xb
 2620 00c9 27       		.uleb128 0x27
 2621 00ca 0C       		.uleb128 0xc
 2622 00cb 11       		.uleb128 0x11
 2623 00cc 01       		.uleb128 0x1
 2624 00cd 12       		.uleb128 0x12
 2625 00ce 01       		.uleb128 0x1
 2626 00cf 40       		.uleb128 0x40
 2627 00d0 06       		.uleb128 0x6
 2628 00d1 00       		.byte	0x0
 2629 00d2 00       		.byte	0x0
 2630 00d3 10       		.uleb128 0x10
 2631 00d4 2E       		.uleb128 0x2e
 2632 00d5 01       		.byte	0x1
 2633 00d6 01       		.uleb128 0x1
 2634 00d7 13       		.uleb128 0x13
 2635 00d8 03       		.uleb128 0x3
 2636 00d9 0E       		.uleb128 0xe
 2637 00da 3A       		.uleb128 0x3a
ARM GAS  /cygdrive/c/Users/embedded/AppData/Local/Temp/cc3JnFww.s 			page 57


 2638 00db 0B       		.uleb128 0xb
 2639 00dc 3B       		.uleb128 0x3b
 2640 00dd 0B       		.uleb128 0xb
 2641 00de 27       		.uleb128 0x27
 2642 00df 0C       		.uleb128 0xc
 2643 00e0 20       		.uleb128 0x20
 2644 00e1 0B       		.uleb128 0xb
 2645 00e2 00       		.byte	0x0
 2646 00e3 00       		.byte	0x0
 2647 00e4 11       		.uleb128 0x11
 2648 00e5 34       		.uleb128 0x34
 2649 00e6 00       		.byte	0x0
 2650 00e7 03       		.uleb128 0x3
 2651 00e8 08       		.uleb128 0x8
 2652 00e9 3A       		.uleb128 0x3a
 2653 00ea 0B       		.uleb128 0xb
 2654 00eb 3B       		.uleb128 0x3b
 2655 00ec 0B       		.uleb128 0xb
 2656 00ed 49       		.uleb128 0x49
 2657 00ee 13       		.uleb128 0x13
 2658 00ef 00       		.byte	0x0
 2659 00f0 00       		.byte	0x0
 2660 00f1 12       		.uleb128 0x12
 2661 00f2 05       		.uleb128 0x5
 2662 00f3 00       		.byte	0x0
 2663 00f4 03       		.uleb128 0x3
 2664 00f5 0E       		.uleb128 0xe
 2665 00f6 3A       		.uleb128 0x3a
 2666 00f7 0B       		.uleb128 0xb
 2667 00f8 3B       		.uleb128 0x3b
 2668 00f9 0B       		.uleb128 0xb
 2669 00fa 49       		.uleb128 0x49
 2670 00fb 13       		.uleb128 0x13
 2671 00fc 00       		.byte	0x0
 2672 00fd 00       		.byte	0x0
 2673 00fe 13       		.uleb128 0x13
 2674 00ff 05       		.uleb128 0x5
 2675 0100 00       		.byte	0x0
 2676 0101 03       		.uleb128 0x3
 2677 0102 08       		.uleb128 0x8
 2678 0103 3A       		.uleb128 0x3a
 2679 0104 0B       		.uleb128 0xb
 2680 0105 3B       		.uleb128 0x3b
 2681 0106 0B       		.uleb128 0xb
 2682 0107 49       		.uleb128 0x49
 2683 0108 13       		.uleb128 0x13
 2684 0109 00       		.byte	0x0
 2685 010a 00       		.byte	0x0
 2686 010b 14       		.uleb128 0x14
 2687 010c 2E       		.uleb128 0x2e
 2688 010d 00       		.byte	0x0
 2689 010e 03       		.uleb128 0x3
 2690 010f 0E       		.uleb128 0xe
 2691 0110 3A       		.uleb128 0x3a
 2692 0111 0B       		.uleb128 0xb
 2693 0112 3B       		.uleb128 0x3b
 2694 0113 05       		.uleb128 0x5
ARM GAS  /cygdrive/c/Users/embedded/AppData/Local/Temp/cc3JnFww.s 			page 58


 2695 0114 27       		.uleb128 0x27
 2696 0115 0C       		.uleb128 0xc
 2697 0116 20       		.uleb128 0x20
 2698 0117 0B       		.uleb128 0xb
 2699 0118 00       		.byte	0x0
 2700 0119 00       		.byte	0x0
 2701 011a 15       		.uleb128 0x15
 2702 011b 2E       		.uleb128 0x2e
 2703 011c 01       		.byte	0x1
 2704 011d 01       		.uleb128 0x1
 2705 011e 13       		.uleb128 0x13
 2706 011f 03       		.uleb128 0x3
 2707 0120 0E       		.uleb128 0xe
 2708 0121 3A       		.uleb128 0x3a
 2709 0122 0B       		.uleb128 0xb
 2710 0123 3B       		.uleb128 0x3b
 2711 0124 05       		.uleb128 0x5
 2712 0125 27       		.uleb128 0x27
 2713 0126 0C       		.uleb128 0xc
 2714 0127 49       		.uleb128 0x49
 2715 0128 13       		.uleb128 0x13
 2716 0129 20       		.uleb128 0x20
 2717 012a 0B       		.uleb128 0xb
 2718 012b 00       		.byte	0x0
 2719 012c 00       		.byte	0x0
 2720 012d 16       		.uleb128 0x16
 2721 012e 34       		.uleb128 0x34
 2722 012f 00       		.byte	0x0
 2723 0130 03       		.uleb128 0x3
 2724 0131 08       		.uleb128 0x8
 2725 0132 3A       		.uleb128 0x3a
 2726 0133 0B       		.uleb128 0xb
 2727 0134 3B       		.uleb128 0x3b
 2728 0135 05       		.uleb128 0x5
 2729 0136 49       		.uleb128 0x49
 2730 0137 13       		.uleb128 0x13
 2731 0138 00       		.byte	0x0
 2732 0139 00       		.byte	0x0
 2733 013a 17       		.uleb128 0x17
 2734 013b 2E       		.uleb128 0x2e
 2735 013c 01       		.byte	0x1
 2736 013d 01       		.uleb128 0x1
 2737 013e 13       		.uleb128 0x13
 2738 013f 03       		.uleb128 0x3
 2739 0140 0E       		.uleb128 0xe
 2740 0141 3A       		.uleb128 0x3a
 2741 0142 0B       		.uleb128 0xb
 2742 0143 3B       		.uleb128 0x3b
 2743 0144 05       		.uleb128 0x5
 2744 0145 27       		.uleb128 0x27
 2745 0146 0C       		.uleb128 0xc
 2746 0147 20       		.uleb128 0x20
 2747 0148 0B       		.uleb128 0xb
 2748 0149 00       		.byte	0x0
 2749 014a 00       		.byte	0x0
 2750 014b 18       		.uleb128 0x18
 2751 014c 2E       		.uleb128 0x2e
ARM GAS  /cygdrive/c/Users/embedded/AppData/Local/Temp/cc3JnFww.s 			page 59


 2752 014d 01       		.byte	0x1
 2753 014e 01       		.uleb128 0x1
 2754 014f 13       		.uleb128 0x13
 2755 0150 03       		.uleb128 0x3
 2756 0151 0E       		.uleb128 0xe
 2757 0152 3A       		.uleb128 0x3a
 2758 0153 0B       		.uleb128 0xb
 2759 0154 3B       		.uleb128 0x3b
 2760 0155 0B       		.uleb128 0xb
 2761 0156 27       		.uleb128 0x27
 2762 0157 0C       		.uleb128 0xc
 2763 0158 49       		.uleb128 0x49
 2764 0159 13       		.uleb128 0x13
 2765 015a 20       		.uleb128 0x20
 2766 015b 0B       		.uleb128 0xb
 2767 015c 00       		.byte	0x0
 2768 015d 00       		.byte	0x0
 2769 015e 19       		.uleb128 0x19
 2770 015f 2E       		.uleb128 0x2e
 2771 0160 01       		.byte	0x1
 2772 0161 01       		.uleb128 0x1
 2773 0162 13       		.uleb128 0x13
 2774 0163 03       		.uleb128 0x3
 2775 0164 0E       		.uleb128 0xe
 2776 0165 3A       		.uleb128 0x3a
 2777 0166 0B       		.uleb128 0xb
 2778 0167 3B       		.uleb128 0x3b
 2779 0168 05       		.uleb128 0x5
 2780 0169 27       		.uleb128 0x27
 2781 016a 0C       		.uleb128 0xc
 2782 016b 11       		.uleb128 0x11
 2783 016c 01       		.uleb128 0x1
 2784 016d 12       		.uleb128 0x12
 2785 016e 01       		.uleb128 0x1
 2786 016f 40       		.uleb128 0x40
 2787 0170 06       		.uleb128 0x6
 2788 0171 00       		.byte	0x0
 2789 0172 00       		.byte	0x0
 2790 0173 1A       		.uleb128 0x1a
 2791 0174 1D       		.uleb128 0x1d
 2792 0175 01       		.byte	0x1
 2793 0176 01       		.uleb128 0x1
 2794 0177 13       		.uleb128 0x13
 2795 0178 31       		.uleb128 0x31
 2796 0179 13       		.uleb128 0x13
 2797 017a 11       		.uleb128 0x11
 2798 017b 01       		.uleb128 0x1
 2799 017c 12       		.uleb128 0x12
 2800 017d 01       		.uleb128 0x1
 2801 017e 58       		.uleb128 0x58
 2802 017f 0B       		.uleb128 0xb
 2803 0180 59       		.uleb128 0x59
 2804 0181 05       		.uleb128 0x5
 2805 0182 00       		.byte	0x0
 2806 0183 00       		.byte	0x0
 2807 0184 1B       		.uleb128 0x1b
 2808 0185 0B       		.uleb128 0xb
ARM GAS  /cygdrive/c/Users/embedded/AppData/Local/Temp/cc3JnFww.s 			page 60


 2809 0186 01       		.byte	0x1
 2810 0187 11       		.uleb128 0x11
 2811 0188 01       		.uleb128 0x1
 2812 0189 12       		.uleb128 0x12
 2813 018a 01       		.uleb128 0x1
 2814 018b 00       		.byte	0x0
 2815 018c 00       		.byte	0x0
 2816 018d 1C       		.uleb128 0x1c
 2817 018e 34       		.uleb128 0x34
 2818 018f 00       		.byte	0x0
 2819 0190 31       		.uleb128 0x31
 2820 0191 13       		.uleb128 0x13
 2821 0192 00       		.byte	0x0
 2822 0193 00       		.byte	0x0
 2823 0194 1D       		.uleb128 0x1d
 2824 0195 05       		.uleb128 0x5
 2825 0196 00       		.byte	0x0
 2826 0197 31       		.uleb128 0x31
 2827 0198 13       		.uleb128 0x13
 2828 0199 00       		.byte	0x0
 2829 019a 00       		.byte	0x0
 2830 019b 1E       		.uleb128 0x1e
 2831 019c 34       		.uleb128 0x34
 2832 019d 00       		.byte	0x0
 2833 019e 31       		.uleb128 0x31
 2834 019f 13       		.uleb128 0x13
 2835 01a0 02       		.uleb128 0x2
 2836 01a1 06       		.uleb128 0x6
 2837 01a2 00       		.byte	0x0
 2838 01a3 00       		.byte	0x0
 2839 01a4 1F       		.uleb128 0x1f
 2840 01a5 1D       		.uleb128 0x1d
 2841 01a6 00       		.byte	0x0
 2842 01a7 31       		.uleb128 0x31
 2843 01a8 13       		.uleb128 0x13
 2844 01a9 11       		.uleb128 0x11
 2845 01aa 01       		.uleb128 0x1
 2846 01ab 12       		.uleb128 0x12
 2847 01ac 01       		.uleb128 0x1
 2848 01ad 58       		.uleb128 0x58
 2849 01ae 0B       		.uleb128 0xb
 2850 01af 59       		.uleb128 0x59
 2851 01b0 05       		.uleb128 0x5
 2852 01b1 00       		.byte	0x0
 2853 01b2 00       		.byte	0x0
 2854 01b3 20       		.uleb128 0x20
 2855 01b4 1D       		.uleb128 0x1d
 2856 01b5 01       		.byte	0x1
 2857 01b6 31       		.uleb128 0x31
 2858 01b7 13       		.uleb128 0x13
 2859 01b8 11       		.uleb128 0x11
 2860 01b9 01       		.uleb128 0x1
 2861 01ba 12       		.uleb128 0x12
 2862 01bb 01       		.uleb128 0x1
 2863 01bc 58       		.uleb128 0x58
 2864 01bd 0B       		.uleb128 0xb
 2865 01be 59       		.uleb128 0x59
ARM GAS  /cygdrive/c/Users/embedded/AppData/Local/Temp/cc3JnFww.s 			page 61


 2866 01bf 05       		.uleb128 0x5
 2867 01c0 00       		.byte	0x0
 2868 01c1 00       		.byte	0x0
 2869 01c2 21       		.uleb128 0x21
 2870 01c3 34       		.uleb128 0x34
 2871 01c4 00       		.byte	0x0
 2872 01c5 31       		.uleb128 0x31
 2873 01c6 13       		.uleb128 0x13
 2874 01c7 02       		.uleb128 0x2
 2875 01c8 0A       		.uleb128 0xa
 2876 01c9 00       		.byte	0x0
 2877 01ca 00       		.byte	0x0
 2878 01cb 22       		.uleb128 0x22
 2879 01cc 05       		.uleb128 0x5
 2880 01cd 00       		.byte	0x0
 2881 01ce 03       		.uleb128 0x3
 2882 01cf 0E       		.uleb128 0xe
 2883 01d0 3A       		.uleb128 0x3a
 2884 01d1 0B       		.uleb128 0xb
 2885 01d2 3B       		.uleb128 0x3b
 2886 01d3 05       		.uleb128 0x5
 2887 01d4 49       		.uleb128 0x49
 2888 01d5 13       		.uleb128 0x13
 2889 01d6 02       		.uleb128 0x2
 2890 01d7 06       		.uleb128 0x6
 2891 01d8 00       		.byte	0x0
 2892 01d9 00       		.byte	0x0
 2893 01da 23       		.uleb128 0x23
 2894 01db 34       		.uleb128 0x34
 2895 01dc 00       		.byte	0x0
 2896 01dd 03       		.uleb128 0x3
 2897 01de 08       		.uleb128 0x8
 2898 01df 3A       		.uleb128 0x3a
 2899 01e0 0B       		.uleb128 0xb
 2900 01e1 3B       		.uleb128 0x3b
 2901 01e2 05       		.uleb128 0x5
 2902 01e3 49       		.uleb128 0x49
 2903 01e4 13       		.uleb128 0x13
 2904 01e5 02       		.uleb128 0x2
 2905 01e6 06       		.uleb128 0x6
 2906 01e7 00       		.byte	0x0
 2907 01e8 00       		.byte	0x0
 2908 01e9 24       		.uleb128 0x24
 2909 01ea 2E       		.uleb128 0x2e
 2910 01eb 01       		.byte	0x1
 2911 01ec 01       		.uleb128 0x1
 2912 01ed 13       		.uleb128 0x13
 2913 01ee 3F       		.uleb128 0x3f
 2914 01ef 0C       		.uleb128 0xc
 2915 01f0 03       		.uleb128 0x3
 2916 01f1 0E       		.uleb128 0xe
 2917 01f2 3A       		.uleb128 0x3a
 2918 01f3 0B       		.uleb128 0xb
 2919 01f4 3B       		.uleb128 0x3b
 2920 01f5 05       		.uleb128 0x5
 2921 01f6 27       		.uleb128 0x27
 2922 01f7 0C       		.uleb128 0xc
ARM GAS  /cygdrive/c/Users/embedded/AppData/Local/Temp/cc3JnFww.s 			page 62


 2923 01f8 11       		.uleb128 0x11
 2924 01f9 01       		.uleb128 0x1
 2925 01fa 12       		.uleb128 0x12
 2926 01fb 01       		.uleb128 0x1
 2927 01fc 40       		.uleb128 0x40
 2928 01fd 06       		.uleb128 0x6
 2929 01fe 00       		.byte	0x0
 2930 01ff 00       		.byte	0x0
 2931 0200 25       		.uleb128 0x25
 2932 0201 34       		.uleb128 0x34
 2933 0202 00       		.byte	0x0
 2934 0203 03       		.uleb128 0x3
 2935 0204 0E       		.uleb128 0xe
 2936 0205 3A       		.uleb128 0x3a
 2937 0206 0B       		.uleb128 0xb
 2938 0207 3B       		.uleb128 0x3b
 2939 0208 05       		.uleb128 0x5
 2940 0209 49       		.uleb128 0x49
 2941 020a 13       		.uleb128 0x13
 2942 020b 02       		.uleb128 0x2
 2943 020c 06       		.uleb128 0x6
 2944 020d 00       		.byte	0x0
 2945 020e 00       		.byte	0x0
 2946 020f 26       		.uleb128 0x26
 2947 0210 34       		.uleb128 0x34
 2948 0211 00       		.byte	0x0
 2949 0212 03       		.uleb128 0x3
 2950 0213 0E       		.uleb128 0xe
 2951 0214 3A       		.uleb128 0x3a
 2952 0215 0B       		.uleb128 0xb
 2953 0216 3B       		.uleb128 0x3b
 2954 0217 05       		.uleb128 0x5
 2955 0218 49       		.uleb128 0x49
 2956 0219 13       		.uleb128 0x13
 2957 021a 02       		.uleb128 0x2
 2958 021b 0A       		.uleb128 0xa
 2959 021c 00       		.byte	0x0
 2960 021d 00       		.byte	0x0
 2961 021e 27       		.uleb128 0x27
 2962 021f 34       		.uleb128 0x34
 2963 0220 00       		.byte	0x0
 2964 0221 03       		.uleb128 0x3
 2965 0222 0E       		.uleb128 0xe
 2966 0223 3A       		.uleb128 0x3a
 2967 0224 0B       		.uleb128 0xb
 2968 0225 3B       		.uleb128 0x3b
 2969 0226 0B       		.uleb128 0xb
 2970 0227 49       		.uleb128 0x49
 2971 0228 13       		.uleb128 0x13
 2972 0229 02       		.uleb128 0x2
 2973 022a 0A       		.uleb128 0xa
 2974 022b 00       		.byte	0x0
 2975 022c 00       		.byte	0x0
 2976 022d 28       		.uleb128 0x28
 2977 022e 26       		.uleb128 0x26
 2978 022f 00       		.byte	0x0
 2979 0230 49       		.uleb128 0x49
ARM GAS  /cygdrive/c/Users/embedded/AppData/Local/Temp/cc3JnFww.s 			page 63


 2980 0231 13       		.uleb128 0x13
 2981 0232 00       		.byte	0x0
 2982 0233 00       		.byte	0x0
 2983 0234 29       		.uleb128 0x29
 2984 0235 35       		.uleb128 0x35
 2985 0236 00       		.byte	0x0
 2986 0237 49       		.uleb128 0x49
 2987 0238 13       		.uleb128 0x13
 2988 0239 00       		.byte	0x0
 2989 023a 00       		.byte	0x0
 2990 023b 2A       		.uleb128 0x2a
 2991 023c 34       		.uleb128 0x34
 2992 023d 00       		.byte	0x0
 2993 023e 03       		.uleb128 0x3
 2994 023f 08       		.uleb128 0x8
 2995 0240 3A       		.uleb128 0x3a
 2996 0241 0B       		.uleb128 0xb
 2997 0242 3B       		.uleb128 0x3b
 2998 0243 0B       		.uleb128 0xb
 2999 0244 49       		.uleb128 0x49
 3000 0245 13       		.uleb128 0x13
 3001 0246 3F       		.uleb128 0x3f
 3002 0247 0C       		.uleb128 0xc
 3003 0248 3C       		.uleb128 0x3c
 3004 0249 0C       		.uleb128 0xc
 3005 024a 00       		.byte	0x0
 3006 024b 00       		.byte	0x0
 3007 024c 2B       		.uleb128 0x2b
 3008 024d 34       		.uleb128 0x34
 3009 024e 00       		.byte	0x0
 3010 024f 03       		.uleb128 0x3
 3011 0250 0E       		.uleb128 0xe
 3012 0251 3A       		.uleb128 0x3a
 3013 0252 0B       		.uleb128 0xb
 3014 0253 3B       		.uleb128 0x3b
 3015 0254 0B       		.uleb128 0xb
 3016 0255 49       		.uleb128 0x49
 3017 0256 13       		.uleb128 0x13
 3018 0257 3F       		.uleb128 0x3f
 3019 0258 0C       		.uleb128 0xc
 3020 0259 02       		.uleb128 0x2
 3021 025a 0A       		.uleb128 0xa
 3022 025b 00       		.byte	0x0
 3023 025c 00       		.byte	0x0
 3024 025d 00       		.byte	0x0
 3025              		.section	.debug_pubnames,"",%progbits
 3026 0000 2A000000 		.4byte	0x2a
 3027 0004 0200     		.2byte	0x2
 3028 0006 00000000 		.4byte	.Ldebug_info0
 3029 000a 2F060000 		.4byte	0x62f
 3030 000e DD040000 		.4byte	0x4dd
 3031 0012 706C6179 		.ascii	"playExample\000"
 3031      4578616D 
 3031      706C6500 
 3032 001e 1C060000 		.4byte	0x61c
 3033 0022 66696775 		.ascii	"figures\000"
 3033      72657300 
ARM GAS  /cygdrive/c/Users/embedded/AppData/Local/Temp/cc3JnFww.s 			page 64


 3034 002a 00000000 		.4byte	0x0
 3035              		.section	.debug_aranges,"",%progbits
 3036 0000 1C000000 		.4byte	0x1c
 3037 0004 0200     		.2byte	0x2
 3038 0006 00000000 		.4byte	.Ldebug_info0
 3039 000a 04       		.byte	0x4
 3040 000b 00       		.byte	0x0
 3041 000c 0000     		.2byte	0x0
 3042 000e 0000     		.2byte	0x0
 3043 0010 00000000 		.4byte	.Ltext0
 3044 0014 3C050000 		.4byte	.Letext0-.Ltext0
 3045 0018 00000000 		.4byte	0x0
 3046 001c 00000000 		.4byte	0x0
 3047              		.section	.debug_str,"MS",%progbits,1
 3048              	.LASF37:
 3049 0000 61647661 		.ascii	"advanceGame\000"
 3049      6E636547 
 3049      616D6500 
 3050              	.LASF46:
 3051 000c 63757272 		.ascii	"currFigure\000"
 3051      46696775 
 3051      726500
 3052              	.LASF4:
 3053 0017 7369676E 		.ascii	"signed char\000"
 3053      65642063 
 3053      68617200 
 3054              	.LASF12:
 3055 0023 6C6F6E67 		.ascii	"long long unsigned int\000"
 3055      206C6F6E 
 3055      6720756E 
 3055      7369676E 
 3055      65642069 
 3056              	.LASF26:
 3057 003a 73656C65 		.ascii	"selectedColor\000"
 3057      63746564 
 3057      436F6C6F 
 3057      7200
 3058              	.LASF23:
 3059 0048 626F7264 		.ascii	"borderColor\000"
 3059      6572436F 
 3059      6C6F7200 
 3060              	.LASF10:
 3061 0054 6C6F6E67 		.ascii	"long long int\000"
 3061      206C6F6E 
 3061      6720696E 
 3061      7400
 3062              	.LASF7:
 3063 0062 74426F6F 		.ascii	"tBool\000"
 3063      6C00
 3064              	.LASF9:
 3065 0068 6C6F6E67 		.ascii	"long int\000"
 3065      20696E74 
 3065      00
 3066              	.LASF16:
 3067 0071 794C656E 		.ascii	"yLen\000"
 3067      00
 3068              	.LASF34:
ARM GAS  /cygdrive/c/Users/embedded/AppData/Local/Temp/cc3JnFww.s 			page 65


 3069 0076 63686563 		.ascii	"checkScore\000"
 3069      6B53636F 
 3069      726500
 3070              	.LASF45:
 3071 0081 626F6172 		.ascii	"board\000"
 3071      6400
 3072              	.LASF44:
 3073 0087 73686966 		.ascii	"shift\000"
 3073      7400
 3074              	.LASF31:
 3075 008d 64726177 		.ascii	"drawGame\000"
 3075      47616D65 
 3075      00
 3076              	.LASF17:
 3077 0096 6E6F4F66 		.ascii	"noOfChoices\000"
 3077      43686F69 
 3077      63657300 
 3078              	.LASF25:
 3079 00a2 63686F69 		.ascii	"choicesColor\000"
 3079      63657343 
 3079      6F6C6F72 
 3079      00
 3080              	.LASF18:
 3081 00af 696E6974 		.ascii	"initialChoice\000"
 3081      69616C43 
 3081      686F6963 
 3081      6500
 3082              	.LASF3:
 3083 00bd 756E7369 		.ascii	"unsigned int\000"
 3083      676E6564 
 3083      20696E74 
 3083      00
 3084              	.LASF20:
 3085 00ca 68656164 		.ascii	"headerTextXpos\000"
 3085      65725465 
 3085      78745870 
 3085      6F7300
 3086              	.LASF56:
 3087 00d9 706C6179 		.ascii	"playExample\000"
 3087      4578616D 
 3087      706C6500 
 3088              	.LASF8:
 3089 00e5 6C6F6E67 		.ascii	"long unsigned int\000"
 3089      20756E73 
 3089      69676E65 
 3089      6420696E 
 3089      7400
 3090              	.LASF55:
 3091 00f7 75706461 		.ascii	"updateDelayTime\000"
 3091      74654465 
 3091      6C617954 
 3091      696D6500 
 3092              	.LASF54:
 3093 0107 2F637967 		.ascii	"/cygdrive/c/Embedded/2104MiniDemo/Gameboard\000"
 3093      64726976 
 3093      652F632F 
 3093      456D6265 
ARM GAS  /cygdrive/c/Users/embedded/AppData/Local/Temp/cc3JnFww.s 			page 66


 3093      64646564 
 3094              	.LASF1:
 3095 0133 73686F72 		.ascii	"short unsigned int\000"
 3095      7420756E 
 3095      7369676E 
 3095      65642069 
 3095      6E7400
 3096              	.LASF36:
 3097 0146 64726177 		.ascii	"drawScore\000"
 3097      53636F72 
 3097      6500
 3098              	.LASF50:
 3099 0150 64656C61 		.ascii	"delayTimeMs\000"
 3099      7954696D 
 3099      654D7300 
 3100              	.LASF2:
 3101 015c 74553332 		.ascii	"tU32\000"
 3101      00
 3102              	.LASF21:
 3103 0161 7043686F 		.ascii	"pChoice\000"
 3103      69636500 
 3104              	.LASF22:
 3105 0169 6267436F 		.ascii	"bgColor\000"
 3105      6C6F7200 
 3106              	.LASF35:
 3107 0171 66756C6C 		.ascii	"full\000"
 3107      00
 3108              	.LASF48:
 3109 0176 63757272 		.ascii	"currYpos\000"
 3109      59706F73 
 3109      00
 3110              	.LASF53:
 3111 017f 6578616D 		.ascii	"exampleGame.c\000"
 3111      706C6547 
 3111      616D652E 
 3111      6300
 3112              	.LASF38:
 3113 018d 73657475 		.ascii	"setupGame\000"
 3113      7047616D 
 3113      6500
 3114              	.LASF42:
 3115 0197 67616D65 		.ascii	"gameStatus\000"
 3115      53746174 
 3115      757300
 3116              	.LASF30:
 3117 01a2 696E7365 		.ascii	"insertFigure\000"
 3117      72744669 
 3117      67757265 
 3117      00
 3118              	.LASF27:
 3119 01af 744D656E 		.ascii	"tMenu\000"
 3119      7500
 3120              	.LASF0:
 3121 01b5 756E7369 		.ascii	"unsigned char\000"
 3121      676E6564 
 3121      20636861 
 3121      7200
ARM GAS  /cygdrive/c/Users/embedded/AppData/Local/Temp/cc3JnFww.s 			page 67


 3122              	.LASF52:
 3123 01c3 474E5520 		.ascii	"GNU C 4.1.1\000"
 3123      4320342E 
 3123      312E3100 
 3124              	.LASF32:
 3125 01cf 64656C65 		.ascii	"deleteFigure\000"
 3125      74654669 
 3125      67757265 
 3125      00
 3126              	.LASF5:
 3127 01dc 73686F72 		.ascii	"short int\000"
 3127      7420696E 
 3127      7400
 3128              	.LASF51:
 3129 01e6 66696775 		.ascii	"figures\000"
 3129      72657300 
 3130              	.LASF15:
 3131 01ee 784C656E 		.ascii	"xLen\000"
 3131      00
 3132              	.LASF47:
 3133 01f3 63757272 		.ascii	"currXpos\000"
 3133      58706F73 
 3133      00
 3134              	.LASF29:
 3135 01fc 69735661 		.ascii	"isValid\000"
 3135      6C696400 
 3136              	.LASF11:
 3137 0204 63686172 		.ascii	"char\000"
 3137      00
 3138              	.LASF49:
 3139 0209 6C617374 		.ascii	"lastUpdate\000"
 3139      55706461 
 3139      746500
 3140              	.LASF40:
 3141 0214 616E794B 		.ascii	"anyKey\000"
 3141      657900
 3142              	.LASF6:
 3143 021b 74533332 		.ascii	"tS32\000"
 3143      00
 3144              	.LASF14:
 3145 0220 79506F73 		.ascii	"yPos\000"
 3145      00
 3146              	.LASF24:
 3147 0225 68656164 		.ascii	"headerColor\000"
 3147      6572436F 
 3147      6C6F7200 
 3148              	.LASF41:
 3149 0231 6D656E75 		.ascii	"menu\000"
 3149      00
 3150              	.LASF39:
 3151 0236 64726177 		.ascii	"drawBoard\000"
 3151      426F6172 
 3151      6400
 3152              	.LASF13:
 3153 0240 78506F73 		.ascii	"xPos\000"
 3153      00
 3154              	.LASF33:
ARM GAS  /cygdrive/c/Users/embedded/AppData/Local/Temp/cc3JnFww.s 			page 68


 3155 0245 67616D65 		.ascii	"gameOver\000"
 3155      4F766572 
 3155      00
 3156              	.LASF28:
 3157 024e 73686170 		.ascii	"shape\000"
 3157      6500
 3158              	.LASF43:
 3159 0254 73636F72 		.ascii	"score\000"
 3159      6500
 3160              	.LASF19:
 3161 025a 70486561 		.ascii	"pHeaderText\000"
 3161      64657254 
 3161      65787400 
 3162              		.ident	"GCC: (GNU) 4.1.1"
ARM GAS  /cygdrive/c/Users/embedded/AppData/Local/Temp/cc3JnFww.s 			page 69


DEFINED SYMBOLS
                            *ABS*:00000000 exampleGame.c
/cygdrive/c/Users/embedded/AppData/Local/Temp/cc3JnFww.s:1      .text:00000000 $t
/cygdrive/c/Users/embedded/AppData/Local/Temp/cc3JnFww.s:15     .text:00000000 isValid
/cygdrive/c/Users/embedded/AppData/Local/Temp/cc3JnFww.s:132    .text:00000090 $d
/cygdrive/c/Users/embedded/AppData/Local/Temp/cc3JnFww.s:1042   .data:00000000 figures
/cygdrive/c/Users/embedded/AppData/Local/Temp/cc3JnFww.s:1149   .bss:00000004 board
/cygdrive/c/Users/embedded/AppData/Local/Temp/cc3JnFww.s:137    .text:00000098 $t
/cygdrive/c/Users/embedded/AppData/Local/Temp/cc3JnFww.s:140    .text:00000098 insertFigure
/cygdrive/c/Users/embedded/AppData/Local/Temp/cc3JnFww.s:203    .text:000000e0 $d
/cygdrive/c/Users/embedded/AppData/Local/Temp/cc3JnFww.s:211    .text:000000e8 $t
/cygdrive/c/Users/embedded/AppData/Local/Temp/cc3JnFww.s:214    .text:000000e8 advanceGame
/cygdrive/c/Users/embedded/AppData/Local/Temp/cc3JnFww.s:608    .text:000002ec $d
/cygdrive/c/Users/embedded/AppData/Local/Temp/cc3JnFww.s:1152   .bss:00000284 currFigure
/cygdrive/c/Users/embedded/AppData/Local/Temp/cc3JnFww.s:1155   .bss:00000288 currXpos
/cygdrive/c/Users/embedded/AppData/Local/Temp/cc3JnFww.s:1158   .bss:0000028c currYpos
/cygdrive/c/Users/embedded/AppData/Local/Temp/cc3JnFww.s:1146   .bss:00000001 score
/cygdrive/c/Users/embedded/AppData/Local/Temp/cc3JnFww.s:1164   .bss:00000294 delayTimeMs
/cygdrive/c/Users/embedded/AppData/Local/Temp/cc3JnFww.s:1161   .bss:00000290 lastUpdate
/cygdrive/c/Users/embedded/AppData/Local/Temp/cc3JnFww.s:1144   .bss:00000000 gameStatus
/cygdrive/c/Users/embedded/AppData/Local/Temp/cc3JnFww.s:626    .text:00000314 $t
/cygdrive/c/Users/embedded/AppData/Local/Temp/cc3JnFww.s:629    .text:00000314 setupGame
/cygdrive/c/Users/embedded/AppData/Local/Temp/cc3JnFww.s:752    .text:000003b0 $d
/cygdrive/c/Users/embedded/AppData/Local/Temp/cc3JnFww.s:781    .text:000003d0 playExample
/cygdrive/c/Users/embedded/AppData/Local/Temp/cc3JnFww.s:778    .text:000003d0 $t
/cygdrive/c/Users/embedded/AppData/Local/Temp/cc3JnFww.s:1027   .text:00000518 $d
/cygdrive/c/Users/embedded/AppData/Local/Temp/cc3JnFww.s:1123   .rodata:00000000 shift
/cygdrive/c/Users/embedded/AppData/Local/Temp/cc3JnFww.s:1124   .rodata:00000000 $d

UNDEFINED SYMBOLS
__modsi3
__udivsi3
__umodsi3
lcdRectBrd
lcdRect
rand
lcdGotoxy
lcdPuts
ms
srand
lcdColor
checkKey
osSleep
drawMenu
