ARM GAS  /cygdrive/c/Users/embedded/AppData/Local/Temp/ccrN5pnw.s 			page 1


   1              		.code	16
   2              		.file	"music.c"
   3              		.section	.debug_abbrev,"",%progbits
   4              	.Ldebug_abbrev0:
   5              		.section	.debug_info,"",%progbits
   6              	.Ldebug_info0:
   7              		.section	.debug_line,"",%progbits
   8              	.Ldebug_line0:
   9 0000 D3000000 		.text
   9      02004B00 
   9      00000201 
   9      FB0E0D00 
   9      01010101 
  10              	.Ltext0:
  11              		.align	2
  12              		.global	delayMS
  13              		.code 16
  14              		.thumb_func
  15              		.type	delayMS, %function
  16              	delayMS:
  17              	.LFB2:
  18              		.file 1 "music.c"
   1:music.c       **** #include "music.h"
   2:music.c       **** #include "../pre_emptive_os/api/general.h"
   3:music.c       **** #include "../startup/lpc2xxx.h"
   4:music.c       **** #include "../startup/config.h"
   5:music.c       **** 
   6:music.c       **** 
   7:music.c       **** void delayMS(tBool whichTimer,tU16 delay) {
  19              		.loc 1 7 0
  20 0000 10B5     		push	{r4, lr}
  21              	.LCFI0:
  22              	.LVL0:
  23              		.loc 1 7 0
  24 0002 0006     		lsl	r0, r0, #24
  25              	.LVL1:
  26 0004 040E     		lsr	r4, r0, #24
  27              	.LVL2:
  28 0006 0904     		lsl	r1, r1, #16
  29              	.LVL3:
  30 0008 080C     		lsr	r0, r1, #16
  31              	.LVL4:
   8:music.c       **** 	if(whichTimer == TRUE) {
  32              		.loc 1 8 0
  33 000a 012C     		cmp	r4, #1
  34 000c 16D1     		bne	.L2
   9:music.c       **** 		T1TCR = 0x02;
  35              		.loc 1 9 0
  36 000e 1649     		ldr	r1, .L8
  37 0010 0223     		mov	r3, #2
  38 0012 0B60     		str	r3, [r1]
  10:music.c       **** 		T1PR  = 0x00;
  39              		.loc 1 10 0
  40 0014 154B     		ldr	r3, .L8+4
  41 0016 0022     		mov	r2, #0
  42 0018 1A60     		str	r2, [r3]
  11:music.c       **** 		T1MR0 = delay * ((CORE_FREQ)/ (1000 * PBSD));
ARM GAS  /cygdrive/c/Users/embedded/AppData/Local/Temp/ccrN5pnw.s 			page 2


  43              		.loc 1 11 0
  44 001a 154B     		ldr	r3, .L8+8
  45 001c 021C     		mov	r2, r0
  46 001e 5A43     		mul	r2, r3
  47 0020 144B     		ldr	r3, .L8+12
  48 0022 1A60     		str	r2, [r3]
  12:music.c       **** 		T1IR  = 0xff;
  49              		.loc 1 12 0
  50 0024 FF22     		mov	r2, #255
  51 0026 183B     		sub	r3, r3, #24
  52 0028 1A60     		str	r2, [r3]
  13:music.c       **** 		T1MCR = 0x04;
  53              		.loc 1 13 0
  54 002a 0422     		mov	r2, #4
  55 002c 1433     		add	r3, r3, #20
  56 002e 1A60     		str	r2, [r3]
  14:music.c       **** 		T1TCR = 0x01;
  57              		.loc 1 14 0
  58 0030 0C60     		str	r4, [r1]
  59              	.L4:
  15:music.c       **** 		while (T1TCR & 0x01);
  60              		.loc 1 15 0
  61 0032 0D4B     		ldr	r3, .L8
  62 0034 1B68     		ldr	r3, [r3]
  63 0036 DA07     		lsl	r2, r3, #31
  64 0038 13D5     		bpl	.L6
  65 003a FAE7     		b	.L4
  66              	.L2:
  16:music.c       **** 	} else {
  17:music.c       **** 		T1TCR = 0x02;
  67              		.loc 1 17 0
  68 003c 0A49     		ldr	r1, .L8
  69 003e 0223     		mov	r3, #2
  70 0040 0B60     		str	r3, [r1]
  18:music.c       **** 		T1PR  = 0x00;
  71              		.loc 1 18 0
  72 0042 0A4B     		ldr	r3, .L8+4
  73 0044 0022     		mov	r2, #0
  74 0046 1A60     		str	r2, [r3]
  19:music.c       **** 		T1MR0 = delay * ((CORE_FREQ)/ (1000 * PBSD));
  75              		.loc 1 19 0
  76 0048 094B     		ldr	r3, .L8+8
  77 004a 021C     		mov	r2, r0
  78 004c 5A43     		mul	r2, r3
  79 004e 094B     		ldr	r3, .L8+12
  80 0050 1A60     		str	r2, [r3]
  20:music.c       **** 		T1IR  = 0xff;
  81              		.loc 1 20 0
  82 0052 FF22     		mov	r2, #255
  83 0054 183B     		sub	r3, r3, #24
  84 0056 1A60     		str	r2, [r3]
  21:music.c       **** 		T1MCR = 0x04;
  85              		.loc 1 21 0
  86 0058 1433     		add	r3, r3, #20
  87 005a 0422     		mov	r2, #4
  88 005c 1A60     		str	r2, [r3]
  22:music.c       **** 		T1TCR = 0x01;
ARM GAS  /cygdrive/c/Users/embedded/AppData/Local/Temp/ccrN5pnw.s 			page 3


  89              		.loc 1 22 0
  90 005e 0123     		mov	r3, #1
  91 0060 0B60     		str	r3, [r1]
  92              	.L6:
  23:music.c       **** 	}
  24:music.c       **** }
  93              		.loc 1 24 0
  94              		@ sp needed for prologue
  95              	.LVL5:
  96 0062 10BC     		pop	{r4}
  97 0064 01BC     		pop	{r0}
  98 0066 0047     		bx	r0
  99              	.L9:
 100              		.align	2
 101              	.L8:
 102 0068 048000E0 		.word	-536838140
 103 006c 0C8000E0 		.word	-536838132
 104 0070 99390000 		.word	14745
 105 0074 188000E0 		.word	-536838120
 106              	.LFE2:
 107              		.size	delayMS, .-delayMS
 108              		.align	2
 109              		.global	failureSound
 110              		.code 16
 111              		.thumb_func
 112              		.type	failureSound, %function
 113              	failureSound:
 114              	.LFB5:
  25:music.c       **** 
  26:music.c       **** void mainMenuMusic() {
  27:music.c       **** 	tU16 i;
  28:music.c       **** 	for(i=0; i < 100; i++) {
  29:music.c       **** 		setBuzzer(TRUE);
  30:music.c       **** 		delayMS(TRUE, 2);
  31:music.c       **** 		setBuzzer(FALSE);
  32:music.c       **** 		delayMS(TRUE, 3);
  33:music.c       **** 	}
  34:music.c       **** 	delayMS(TRUE, 30);
  35:music.c       **** 	for(i = 0; i < 100; i++) {
  36:music.c       **** 		setBuzzer(TRUE);
  37:music.c       **** 		delayMS(TRUE, 1);
  38:music.c       **** 		setBuzzer(FALSE);
  39:music.c       **** 		delayMS(TRUE, 2);
  40:music.c       **** 	}
  41:music.c       **** 	delayMS(TRUE, 40);
  42:music.c       **** 	for (i = 0; i < 100; i++) {
  43:music.c       **** 		setBuzzer(TRUE);
  44:music.c       **** 		delayMS(TRUE, 3);
  45:music.c       **** 		setBuzzer(FALSE);
  46:music.c       **** 		delayMS(TRUE, 1);
  47:music.c       **** 	}
  48:music.c       **** 	delayMS(TRUE, 30);
  49:music.c       ****     	for(i=0; i < 100; i++) {
  50:music.c       **** 		setBuzzer(TRUE);
  51:music.c       **** 		delayMS(TRUE, 2);
  52:music.c       **** 		setBuzzer(FALSE);
  53:music.c       **** 		delayMS(TRUE, 3);
ARM GAS  /cygdrive/c/Users/embedded/AppData/Local/Temp/ccrN5pnw.s 			page 4


  54:music.c       **** 	}
  55:music.c       **** 	delayMS(TRUE, 40);
  56:music.c       **** 	for(i = 0; i < 100; i++) {
  57:music.c       **** 		setBuzzer(TRUE);
  58:music.c       **** 		delayMS(TRUE, 1);
  59:music.c       **** 		setBuzzer(FALSE);
  60:music.c       **** 		delayMS(TRUE, 2);
  61:music.c       **** 	}
  62:music.c       **** 	delayMS(TRUE, 40);
  63:music.c       **** 	for (i = 0; i < 100; i++) {
  64:music.c       **** 		setBuzzer(TRUE);
  65:music.c       **** 		delayMS(TRUE, 3);
  66:music.c       **** 		setBuzzer(FALSE);
  67:music.c       **** 		delayMS(TRUE, 1);
  68:music.c       **** 	}
  69:music.c       **** 	delayMS(TRUE, 30);
  70:music.c       **** }
  71:music.c       **** 
  72:music.c       **** void gameMusic() {
  73:music.c       **** 	tU16 i;
  74:music.c       **** 	for (i = 0; i < 100; i++) {
  75:music.c       **** 		setBuzzer(TRUE);
  76:music.c       **** 		delayMS(TRUE, 3);
  77:music.c       **** 		setBuzzer(FALSE);
  78:music.c       **** 	    delayMS(TRUE, 2);
  79:music.c       **** 	}
  80:music.c       **** 	delayMS(TRUE, 20);
  81:music.c       **** 	for (i = 0; i < 100; i++) {
  82:music.c       **** 		setBuzzer(TRUE);
  83:music.c       **** 		delayMS(TRUE, 5);
  84:music.c       **** 		setBuzzer(FALSE);
  85:music.c       **** 		delayMS(TRUE, 2);
  86:music.c       **** 	}
  87:music.c       **** 	delayMS(TRUE, 20);
  88:music.c       **** 	for (i = 0; i < 100; i++) {
  89:music.c       **** 		setBuzzer(TRUE);
  90:music.c       **** 		delayMS(TRUE, 3);
  91:music.c       **** 		setBuzzer(FALSE);
  92:music.c       **** 		delayMS(TRUE, 5);
  93:music.c       **** 	}
  94:music.c       **** 	delayMS(TRUE, 30);
  95:music.c       ****     	for (i = 0; i < 100; i++) {
  96:music.c       **** 		setBuzzer(TRUE);
  97:music.c       **** 		delayMS(TRUE, 7);
  98:music.c       **** 		setBuzzer(FALSE);
  99:music.c       **** 	    delayMS(TRUE, 2);
 100:music.c       **** 	}
 101:music.c       **** 	delayMS(TRUE, 30);
 102:music.c       **** 	for (i = 0; i < 100; i++) {
 103:music.c       **** 		setBuzzer(TRUE);
 104:music.c       **** 		delayMS(TRUE, 5);
 105:music.c       **** 		setBuzzer(FALSE);
 106:music.c       **** 		delayMS(TRUE, 1);
 107:music.c       **** 	}
 108:music.c       **** 	delayMS(TRUE, 30);
 109:music.c       **** 	for (i = 0; i < 100; i++) {
 110:music.c       **** 		setBuzzer(TRUE);
ARM GAS  /cygdrive/c/Users/embedded/AppData/Local/Temp/ccrN5pnw.s 			page 5


 111:music.c       **** 		delayMS(TRUE, 2);
 112:music.c       **** 		setBuzzer(FALSE);
 113:music.c       **** 		delayMS(TRUE, 3);
 114:music.c       **** 	}
 115:music.c       **** 	delayMS(TRUE, 40);
 116:music.c       **** }
 117:music.c       **** 
 118:music.c       **** void failureSound() {
 115              		.loc 1 118 0
 116 0078 00B5     		push	{lr}
 117              	.LCFI1:
 119:music.c       **** 	setBuzzer(TRUE);
 118              		.loc 1 119 0
 119 007a 0120     		mov	r0, #1
 120 007c FFF7FEFF 		bl	setBuzzer
 120:music.c       **** 	delayMS(TRUE, 1);
 121              		.loc 1 120 0
 122 0080 0121     		mov	r1, #1
 123 0082 0120     		mov	r0, #1
 124 0084 FFF7FEFF 		bl	delayMS
 121:music.c       **** 	setBuzzer(FALSE);
 125              		.loc 1 121 0
 126 0088 0020     		mov	r0, #0
 127 008a FFF7FEFF 		bl	setBuzzer
 122:music.c       **** 	delayMS(TRUE, 2);
 128              		.loc 1 122 0
 129 008e 0120     		mov	r0, #1
 130 0090 0221     		mov	r1, #2
 131 0092 FFF7FEFF 		bl	delayMS
 123:music.c       **** }
 132              		.loc 1 123 0
 133              		@ sp needed for prologue
 134 0096 01BC     		pop	{r0}
 135 0098 0047     		bx	r0
 136              	.LFE5:
 137              		.size	failureSound, .-failureSound
 138 009a 0000     		.align	2
 139              		.global	gameMusic
 140              		.code 16
 141              		.thumb_func
 142              		.type	gameMusic, %function
 143              	gameMusic:
 144              	.LFB4:
 145              		.loc 1 72 0
 146 009c 10B5     		push	{r4, lr}
 147              	.LCFI2:
 148              		.loc 1 72 0
 149 009e 0024     		mov	r4, #0
 150              	.LVL6:
 151              	.L13:
 152              		.loc 1 75 0
 153 00a0 0120     		mov	r0, #1
 154 00a2 FFF7FEFF 		bl	setBuzzer
 155              		.loc 1 76 0
 156 00a6 0321     		mov	r1, #3
 157 00a8 0120     		mov	r0, #1
 158 00aa FFF7FEFF 		bl	delayMS
ARM GAS  /cygdrive/c/Users/embedded/AppData/Local/Temp/ccrN5pnw.s 			page 6


 159              		.loc 1 77 0
 160 00ae 0020     		mov	r0, #0
 161 00b0 FFF7FEFF 		bl	setBuzzer
 162              		.loc 1 78 0
 163 00b4 0120     		mov	r0, #1
 164 00b6 0221     		mov	r1, #2
 165 00b8 FFF7FEFF 		bl	delayMS
 166              		.loc 1 74 0
 167 00bc 631C     		add	r3, r4, #1
 168 00be 1B04     		lsl	r3, r3, #16
 169 00c0 1C0C     		lsr	r4, r3, #16
 170 00c2 642C     		cmp	r4, #100
 171 00c4 ECD1     		bne	.L13
 172              		.loc 1 80 0
 173 00c6 0120     		mov	r0, #1
 174 00c8 1421     		mov	r1, #20
 175 00ca FFF7FEFF 		bl	delayMS
 176 00ce 0024     		mov	r4, #0
 177              	.LVL7:
 178              	.L15:
 179              		.loc 1 82 0
 180 00d0 0120     		mov	r0, #1
 181 00d2 FFF7FEFF 		bl	setBuzzer
 182              		.loc 1 83 0
 183 00d6 0521     		mov	r1, #5
 184 00d8 0120     		mov	r0, #1
 185 00da FFF7FEFF 		bl	delayMS
 186              		.loc 1 84 0
 187 00de 0020     		mov	r0, #0
 188 00e0 FFF7FEFF 		bl	setBuzzer
 189              		.loc 1 85 0
 190 00e4 0120     		mov	r0, #1
 191 00e6 0221     		mov	r1, #2
 192 00e8 FFF7FEFF 		bl	delayMS
 193              		.loc 1 81 0
 194 00ec 631C     		add	r3, r4, #1
 195 00ee 1B04     		lsl	r3, r3, #16
 196 00f0 1C0C     		lsr	r4, r3, #16
 197 00f2 642C     		cmp	r4, #100
 198 00f4 ECD1     		bne	.L15
 199              		.loc 1 87 0
 200 00f6 0120     		mov	r0, #1
 201 00f8 1421     		mov	r1, #20
 202 00fa FFF7FEFF 		bl	delayMS
 203 00fe 0024     		mov	r4, #0
 204              	.LVL8:
 205              	.L17:
 206              		.loc 1 89 0
 207 0100 0120     		mov	r0, #1
 208 0102 FFF7FEFF 		bl	setBuzzer
 209              		.loc 1 90 0
 210 0106 0321     		mov	r1, #3
 211 0108 0120     		mov	r0, #1
 212 010a FFF7FEFF 		bl	delayMS
 213              		.loc 1 91 0
 214 010e 0020     		mov	r0, #0
 215 0110 FFF7FEFF 		bl	setBuzzer
ARM GAS  /cygdrive/c/Users/embedded/AppData/Local/Temp/ccrN5pnw.s 			page 7


 216              		.loc 1 92 0
 217 0114 0120     		mov	r0, #1
 218 0116 0521     		mov	r1, #5
 219 0118 FFF7FEFF 		bl	delayMS
 220              		.loc 1 88 0
 221 011c 631C     		add	r3, r4, #1
 222 011e 1B04     		lsl	r3, r3, #16
 223 0120 1C0C     		lsr	r4, r3, #16
 224 0122 642C     		cmp	r4, #100
 225 0124 ECD1     		bne	.L17
 226              		.loc 1 94 0
 227 0126 0120     		mov	r0, #1
 228 0128 1E21     		mov	r1, #30
 229 012a FFF7FEFF 		bl	delayMS
 230 012e 0024     		mov	r4, #0
 231              	.LVL9:
 232              	.L19:
 233              		.loc 1 96 0
 234 0130 0120     		mov	r0, #1
 235 0132 FFF7FEFF 		bl	setBuzzer
 236              		.loc 1 97 0
 237 0136 0721     		mov	r1, #7
 238 0138 0120     		mov	r0, #1
 239 013a FFF7FEFF 		bl	delayMS
 240              		.loc 1 98 0
 241 013e 0020     		mov	r0, #0
 242 0140 FFF7FEFF 		bl	setBuzzer
 243              		.loc 1 99 0
 244 0144 0120     		mov	r0, #1
 245 0146 0221     		mov	r1, #2
 246 0148 FFF7FEFF 		bl	delayMS
 247              		.loc 1 95 0
 248 014c 631C     		add	r3, r4, #1
 249 014e 1B04     		lsl	r3, r3, #16
 250 0150 1C0C     		lsr	r4, r3, #16
 251 0152 642C     		cmp	r4, #100
 252 0154 ECD1     		bne	.L19
 253              		.loc 1 101 0
 254 0156 0120     		mov	r0, #1
 255 0158 1E21     		mov	r1, #30
 256 015a FFF7FEFF 		bl	delayMS
 257 015e 0024     		mov	r4, #0
 258              	.LVL10:
 259              	.L21:
 260              		.loc 1 103 0
 261 0160 0120     		mov	r0, #1
 262 0162 FFF7FEFF 		bl	setBuzzer
 263              		.loc 1 104 0
 264 0166 0521     		mov	r1, #5
 265 0168 0120     		mov	r0, #1
 266 016a FFF7FEFF 		bl	delayMS
 267              		.loc 1 105 0
 268 016e 0020     		mov	r0, #0
 269 0170 FFF7FEFF 		bl	setBuzzer
 270              		.loc 1 106 0
 271 0174 0120     		mov	r0, #1
 272 0176 0121     		mov	r1, #1
ARM GAS  /cygdrive/c/Users/embedded/AppData/Local/Temp/ccrN5pnw.s 			page 8


 273 0178 FFF7FEFF 		bl	delayMS
 274              		.loc 1 102 0
 275 017c 631C     		add	r3, r4, #1
 276 017e 1B04     		lsl	r3, r3, #16
 277 0180 1C0C     		lsr	r4, r3, #16
 278 0182 642C     		cmp	r4, #100
 279 0184 ECD1     		bne	.L21
 280              		.loc 1 108 0
 281 0186 0120     		mov	r0, #1
 282 0188 1E21     		mov	r1, #30
 283 018a FFF7FEFF 		bl	delayMS
 284 018e 0024     		mov	r4, #0
 285              	.LVL11:
 286              	.L23:
 287              		.loc 1 110 0
 288 0190 0120     		mov	r0, #1
 289 0192 FFF7FEFF 		bl	setBuzzer
 290              		.loc 1 111 0
 291 0196 0221     		mov	r1, #2
 292 0198 0120     		mov	r0, #1
 293 019a FFF7FEFF 		bl	delayMS
 294              		.loc 1 112 0
 295 019e 0020     		mov	r0, #0
 296 01a0 FFF7FEFF 		bl	setBuzzer
 297              		.loc 1 113 0
 298 01a4 0120     		mov	r0, #1
 299 01a6 0321     		mov	r1, #3
 300 01a8 FFF7FEFF 		bl	delayMS
 301              		.loc 1 109 0
 302 01ac 631C     		add	r3, r4, #1
 303 01ae 1B04     		lsl	r3, r3, #16
 304 01b0 1C0C     		lsr	r4, r3, #16
 305 01b2 642C     		cmp	r4, #100
 306 01b4 ECD1     		bne	.L23
 307              		.loc 1 115 0
 308 01b6 0120     		mov	r0, #1
 309 01b8 2821     		mov	r1, #40
 310 01ba FFF7FEFF 		bl	delayMS
 311              		.loc 1 116 0
 312              		@ sp needed for prologue
 313              	.LVL12:
 314 01be 10BC     		pop	{r4}
 315 01c0 01BC     		pop	{r0}
 316 01c2 0047     		bx	r0
 317              	.LFE4:
 318              		.size	gameMusic, .-gameMusic
 319              		.align	2
 320              		.global	mainMenuMusic
 321              		.code 16
 322              		.thumb_func
 323              		.type	mainMenuMusic, %function
 324              	mainMenuMusic:
 325              	.LFB3:
 326              		.loc 1 26 0
 327 01c4 10B5     		push	{r4, lr}
 328              	.LCFI3:
 329              		.loc 1 26 0
ARM GAS  /cygdrive/c/Users/embedded/AppData/Local/Temp/ccrN5pnw.s 			page 9


 330 01c6 0024     		mov	r4, #0
 331              	.LVL13:
 332              	.L39:
 333              		.loc 1 29 0
 334 01c8 0120     		mov	r0, #1
 335 01ca FFF7FEFF 		bl	setBuzzer
 336              		.loc 1 30 0
 337 01ce 0221     		mov	r1, #2
 338 01d0 0120     		mov	r0, #1
 339 01d2 FFF7FEFF 		bl	delayMS
 340              		.loc 1 31 0
 341 01d6 0020     		mov	r0, #0
 342 01d8 FFF7FEFF 		bl	setBuzzer
 343              		.loc 1 32 0
 344 01dc 0120     		mov	r0, #1
 345 01de 0321     		mov	r1, #3
 346 01e0 FFF7FEFF 		bl	delayMS
 347              		.loc 1 28 0
 348 01e4 631C     		add	r3, r4, #1
 349 01e6 1B04     		lsl	r3, r3, #16
 350 01e8 1C0C     		lsr	r4, r3, #16
 351 01ea 642C     		cmp	r4, #100
 352 01ec ECD1     		bne	.L39
 353              		.loc 1 34 0
 354 01ee 0120     		mov	r0, #1
 355 01f0 1E21     		mov	r1, #30
 356 01f2 FFF7FEFF 		bl	delayMS
 357 01f6 0024     		mov	r4, #0
 358              	.LVL14:
 359              	.L41:
 360              		.loc 1 36 0
 361 01f8 0120     		mov	r0, #1
 362 01fa FFF7FEFF 		bl	setBuzzer
 363              		.loc 1 37 0
 364 01fe 0121     		mov	r1, #1
 365 0200 0120     		mov	r0, #1
 366 0202 FFF7FEFF 		bl	delayMS
 367              		.loc 1 38 0
 368 0206 0020     		mov	r0, #0
 369 0208 FFF7FEFF 		bl	setBuzzer
 370              		.loc 1 39 0
 371 020c 0120     		mov	r0, #1
 372 020e 0221     		mov	r1, #2
 373 0210 FFF7FEFF 		bl	delayMS
 374              		.loc 1 35 0
 375 0214 631C     		add	r3, r4, #1
 376 0216 1B04     		lsl	r3, r3, #16
 377 0218 1C0C     		lsr	r4, r3, #16
 378 021a 642C     		cmp	r4, #100
 379 021c ECD1     		bne	.L41
 380              		.loc 1 41 0
 381 021e 0120     		mov	r0, #1
 382 0220 2821     		mov	r1, #40
 383 0222 FFF7FEFF 		bl	delayMS
 384 0226 0024     		mov	r4, #0
 385              	.LVL15:
 386              	.L43:
ARM GAS  /cygdrive/c/Users/embedded/AppData/Local/Temp/ccrN5pnw.s 			page 10


 387              		.loc 1 43 0
 388 0228 0120     		mov	r0, #1
 389 022a FFF7FEFF 		bl	setBuzzer
 390              		.loc 1 44 0
 391 022e 0321     		mov	r1, #3
 392 0230 0120     		mov	r0, #1
 393 0232 FFF7FEFF 		bl	delayMS
 394              		.loc 1 45 0
 395 0236 0020     		mov	r0, #0
 396 0238 FFF7FEFF 		bl	setBuzzer
 397              		.loc 1 46 0
 398 023c 0120     		mov	r0, #1
 399 023e 0121     		mov	r1, #1
 400 0240 FFF7FEFF 		bl	delayMS
 401              		.loc 1 42 0
 402 0244 631C     		add	r3, r4, #1
 403 0246 1B04     		lsl	r3, r3, #16
 404 0248 1C0C     		lsr	r4, r3, #16
 405 024a 642C     		cmp	r4, #100
 406 024c ECD1     		bne	.L43
 407              		.loc 1 48 0
 408 024e 0120     		mov	r0, #1
 409 0250 1E21     		mov	r1, #30
 410 0252 FFF7FEFF 		bl	delayMS
 411 0256 0024     		mov	r4, #0
 412              	.LVL16:
 413              	.L45:
 414              		.loc 1 50 0
 415 0258 0120     		mov	r0, #1
 416 025a FFF7FEFF 		bl	setBuzzer
 417              		.loc 1 51 0
 418 025e 0221     		mov	r1, #2
 419 0260 0120     		mov	r0, #1
 420 0262 FFF7FEFF 		bl	delayMS
 421              		.loc 1 52 0
 422 0266 0020     		mov	r0, #0
 423 0268 FFF7FEFF 		bl	setBuzzer
 424              		.loc 1 53 0
 425 026c 0120     		mov	r0, #1
 426 026e 0321     		mov	r1, #3
 427 0270 FFF7FEFF 		bl	delayMS
 428              		.loc 1 49 0
 429 0274 631C     		add	r3, r4, #1
 430 0276 1B04     		lsl	r3, r3, #16
 431 0278 1C0C     		lsr	r4, r3, #16
 432 027a 642C     		cmp	r4, #100
 433 027c ECD1     		bne	.L45
 434              		.loc 1 55 0
 435 027e 0120     		mov	r0, #1
 436 0280 2821     		mov	r1, #40
 437 0282 FFF7FEFF 		bl	delayMS
 438 0286 0024     		mov	r4, #0
 439              	.LVL17:
 440              	.L47:
 441              		.loc 1 57 0
 442 0288 0120     		mov	r0, #1
 443 028a FFF7FEFF 		bl	setBuzzer
ARM GAS  /cygdrive/c/Users/embedded/AppData/Local/Temp/ccrN5pnw.s 			page 11


 444              		.loc 1 58 0
 445 028e 0121     		mov	r1, #1
 446 0290 0120     		mov	r0, #1
 447 0292 FFF7FEFF 		bl	delayMS
 448              		.loc 1 59 0
 449 0296 0020     		mov	r0, #0
 450 0298 FFF7FEFF 		bl	setBuzzer
 451              		.loc 1 60 0
 452 029c 0120     		mov	r0, #1
 453 029e 0221     		mov	r1, #2
 454 02a0 FFF7FEFF 		bl	delayMS
 455              		.loc 1 56 0
 456 02a4 631C     		add	r3, r4, #1
 457 02a6 1B04     		lsl	r3, r3, #16
 458 02a8 1C0C     		lsr	r4, r3, #16
 459 02aa 642C     		cmp	r4, #100
 460 02ac ECD1     		bne	.L47
 461              		.loc 1 62 0
 462 02ae 0120     		mov	r0, #1
 463 02b0 2821     		mov	r1, #40
 464 02b2 FFF7FEFF 		bl	delayMS
 465 02b6 0024     		mov	r4, #0
 466              	.LVL18:
 467              	.L49:
 468              		.loc 1 64 0
 469 02b8 0120     		mov	r0, #1
 470 02ba FFF7FEFF 		bl	setBuzzer
 471              		.loc 1 65 0
 472 02be 0321     		mov	r1, #3
 473 02c0 0120     		mov	r0, #1
 474 02c2 FFF7FEFF 		bl	delayMS
 475              		.loc 1 66 0
 476 02c6 0020     		mov	r0, #0
 477 02c8 FFF7FEFF 		bl	setBuzzer
 478              		.loc 1 67 0
 479 02cc 0120     		mov	r0, #1
 480 02ce 0121     		mov	r1, #1
 481 02d0 FFF7FEFF 		bl	delayMS
 482              		.loc 1 63 0
 483 02d4 631C     		add	r3, r4, #1
 484 02d6 1B04     		lsl	r3, r3, #16
 485 02d8 1C0C     		lsr	r4, r3, #16
 486 02da 642C     		cmp	r4, #100
 487 02dc ECD1     		bne	.L49
 488              		.loc 1 69 0
 489 02de 0120     		mov	r0, #1
 490 02e0 1E21     		mov	r1, #30
 491 02e2 FFF7FEFF 		bl	delayMS
 492              		.loc 1 70 0
 493              		@ sp needed for prologue
 494              	.LVL19:
 495 02e6 10BC     		pop	{r4}
 496 02e8 01BC     		pop	{r0}
 497 02ea 0047     		bx	r0
 498              	.LFE3:
 499              		.size	mainMenuMusic, .-mainMenuMusic
 500              		.align	2
ARM GAS  /cygdrive/c/Users/embedded/AppData/Local/Temp/ccrN5pnw.s 			page 12


 501              		.global	switchMusic
 502              		.code 16
 503              		.thumb_func
 504              		.type	switchMusic, %function
 505              	switchMusic:
 506              	.LFB6:
 124:music.c       **** 
 125:music.c       **** void switchMusic(tU8 option) {
 507              		.loc 1 125 0
 508 02ec 00B5     		push	{lr}
 509              	.LCFI4:
 510              	.LVL20:
 511              		.loc 1 125 0
 512 02ee 0006     		lsl	r0, r0, #24
 513              	.LVL21:
 514 02f0 000E     		lsr	r0, r0, #24
 515              	.LVL22:
 126:music.c       **** 	switch (option){
 516              		.loc 1 126 0
 517 02f2 0228     		cmp	r0, #2
 518 02f4 06D0     		beq	.L67
 519 02f6 0328     		cmp	r0, #3
 520 02f8 07D0     		beq	.L68
 521 02fa 0128     		cmp	r0, #1
 522 02fc 07D1     		bne	.L69
 127:music.c       **** 	case 1:
 128:music.c       **** 		mainMenuMusic();
 523              		.loc 1 128 0
 524 02fe FFF7FEFF 		bl	mainMenuMusic
 525              	.LVL23:
 526 0302 04E0     		b	.L69
 527              	.LVL24:
 528              	.L67:
 129:music.c       **** 		break;
 130:music.c       **** 	case 2: 
 131:music.c       **** 		gameMusic();
 529              		.loc 1 131 0
 530 0304 FFF7FEFF 		bl	gameMusic
 531              	.LVL25:
 532 0308 01E0     		b	.L69
 533              	.LVL26:
 534              	.L68:
 132:music.c       **** 		break;
 133:music.c       **** 	case 3:
 134:music.c       **** 		failureSound();
 535              		.loc 1 134 0
 536 030a FFF7FEFF 		bl	failureSound
 537              	.LVL27:
 538              	.LVL28:
 539              	.L69:
 135:music.c       **** 		break;
 136:music.c       **** 	default:
 137:music.c       **** 		break;
 138:music.c       **** 	}
 139:music.c       **** }
 540              		.loc 1 139 0
 541              		@ sp needed for prologue
ARM GAS  /cygdrive/c/Users/embedded/AppData/Local/Temp/ccrN5pnw.s 			page 13


 542 030e 01BC     		pop	{r0}
 543 0310 0047     		bx	r0
 544              	.LFE6:
 545              		.size	switchMusic, .-switchMusic
 546              		.section	.debug_frame,"",%progbits
 547              	.Lframe0:
 548 0000 0C000000 		.4byte	.LECIE0-.LSCIE0
 549              	.LSCIE0:
 550 0004 FFFFFFFF 		.4byte	0xffffffff
 551 0008 01       		.byte	0x1
 552 0009 00       		.ascii	"\000"
 553 000a 01       		.uleb128 0x1
 554 000b 7C       		.sleb128 -4
 555 000c 0E       		.byte	0xe
 556 000d 0C       		.byte	0xc
 557 000e 0D       		.uleb128 0xd
 558 000f 00       		.uleb128 0x0
 559              		.align	2
 560              	.LECIE0:
 561              	.LSFDE0:
 562 0010 14000000 		.4byte	.LEFDE0-.LASFDE0
 563              	.LASFDE0:
 564 0014 00000000 		.4byte	.Lframe0
 565 0018 00000000 		.4byte	.LFB2
 566 001c 78000000 		.4byte	.LFE2-.LFB2
 567 0020 42       		.byte	0x4
 568              		.4byte	.LCFI0-.LFB2
 569 0021 0E       		.byte	0xe
 570 0022 08       		.uleb128 0x8
 571 0023 84       		.byte	0x84
 572 0024 02       		.uleb128 0x2
 573 0025 8E       		.byte	0x8e
 574 0026 01       		.uleb128 0x1
 575 0027 00       		.align	2
 576              	.LEFDE0:
 577              	.LSFDE2:
 578 0028 14000000 		.4byte	.LEFDE2-.LASFDE2
 579              	.LASFDE2:
 580 002c 00000000 		.4byte	.Lframe0
 581 0030 78000000 		.4byte	.LFB5
 582 0034 22000000 		.4byte	.LFE5-.LFB5
 583 0038 42       		.byte	0x4
 584              		.4byte	.LCFI1-.LFB5
 585 0039 0E       		.byte	0xe
 586 003a 04       		.uleb128 0x4
 587 003b 8E       		.byte	0x8e
 588 003c 01       		.uleb128 0x1
 589 003d 000000   		.align	2
 590              	.LEFDE2:
 591              	.LSFDE4:
 592 0040 14000000 		.4byte	.LEFDE4-.LASFDE4
 593              	.LASFDE4:
 594 0044 00000000 		.4byte	.Lframe0
 595 0048 9C000000 		.4byte	.LFB4
 596 004c 28010000 		.4byte	.LFE4-.LFB4
 597 0050 42       		.byte	0x4
 598              		.4byte	.LCFI2-.LFB4
ARM GAS  /cygdrive/c/Users/embedded/AppData/Local/Temp/ccrN5pnw.s 			page 14


 599 0051 0E       		.byte	0xe
 600 0052 08       		.uleb128 0x8
 601 0053 84       		.byte	0x84
 602 0054 02       		.uleb128 0x2
 603 0055 8E       		.byte	0x8e
 604 0056 01       		.uleb128 0x1
 605 0057 00       		.align	2
 606              	.LEFDE4:
 607              	.LSFDE6:
 608 0058 14000000 		.4byte	.LEFDE6-.LASFDE6
 609              	.LASFDE6:
 610 005c 00000000 		.4byte	.Lframe0
 611 0060 C4010000 		.4byte	.LFB3
 612 0064 28010000 		.4byte	.LFE3-.LFB3
 613 0068 42       		.byte	0x4
 614              		.4byte	.LCFI3-.LFB3
 615 0069 0E       		.byte	0xe
 616 006a 08       		.uleb128 0x8
 617 006b 84       		.byte	0x84
 618 006c 02       		.uleb128 0x2
 619 006d 8E       		.byte	0x8e
 620 006e 01       		.uleb128 0x1
 621 006f 00       		.align	2
 622              	.LEFDE6:
 623              	.LSFDE8:
 624 0070 14000000 		.4byte	.LEFDE8-.LASFDE8
 625              	.LASFDE8:
 626 0074 00000000 		.4byte	.Lframe0
 627 0078 EC020000 		.4byte	.LFB6
 628 007c 26000000 		.4byte	.LFE6-.LFB6
 629 0080 42       		.byte	0x4
 630              		.4byte	.LCFI4-.LFB6
 631 0081 0E       		.byte	0xe
 632 0082 04       		.uleb128 0x4
 633 0083 8E       		.byte	0x8e
 634 0084 01       		.uleb128 0x1
 635 0085 000000   		.align	2
 636              	.LEFDE8:
 637              		.file 2 "./startup/../pre_emptive_os/api/general.h"
 638              		.text
 639              	.Letext0:
 640 0312 C046     		.section	.debug_loc,"",%progbits
 641              	.Ldebug_loc0:
 642              	.LLST0:
 643 0000 00000000 		.4byte	.LFB2-.Ltext0
 644 0004 02000000 		.4byte	.LCFI0-.Ltext0
 645 0008 0100     		.2byte	0x1
 646 000a 5D       		.byte	0x5d
 647 000b 02000000 		.4byte	.LCFI0-.Ltext0
 648 000f 78000000 		.4byte	.LFE2-.Ltext0
 649 0013 0200     		.2byte	0x2
 650 0015 7D       		.byte	0x7d
 651 0016 08       		.sleb128 8
 652 0017 00000000 		.4byte	0x0
 653 001b 00000000 		.4byte	0x0
 654              	.LLST1:
 655 001f 02000000 		.4byte	.LVL0-.Ltext0
ARM GAS  /cygdrive/c/Users/embedded/AppData/Local/Temp/ccrN5pnw.s 			page 15


 656 0023 04000000 		.4byte	.LVL1-.Ltext0
 657 0027 0100     		.2byte	0x1
 658 0029 50       		.byte	0x50
 659 002a 06000000 		.4byte	.LVL2-.Ltext0
 660 002e 62000000 		.4byte	.LVL5-.Ltext0
 661 0032 0100     		.2byte	0x1
 662 0034 54       		.byte	0x54
 663 0035 00000000 		.4byte	0x0
 664 0039 00000000 		.4byte	0x0
 665              	.LLST2:
 666 003d 02000000 		.4byte	.LVL0-.Ltext0
 667 0041 08000000 		.4byte	.LVL3-.Ltext0
 668 0045 0100     		.2byte	0x1
 669 0047 51       		.byte	0x51
 670 0048 0A000000 		.4byte	.LVL4-.Ltext0
 671 004c 78000000 		.4byte	.LFE2-.Ltext0
 672 0050 0100     		.2byte	0x1
 673 0052 50       		.byte	0x50
 674 0053 00000000 		.4byte	0x0
 675 0057 00000000 		.4byte	0x0
 676              	.LLST3:
 677 005b 78000000 		.4byte	.LFB5-.Ltext0
 678 005f 7A000000 		.4byte	.LCFI1-.Ltext0
 679 0063 0100     		.2byte	0x1
 680 0065 5D       		.byte	0x5d
 681 0066 7A000000 		.4byte	.LCFI1-.Ltext0
 682 006a 9A000000 		.4byte	.LFE5-.Ltext0
 683 006e 0200     		.2byte	0x2
 684 0070 7D       		.byte	0x7d
 685 0071 04       		.sleb128 4
 686 0072 00000000 		.4byte	0x0
 687 0076 00000000 		.4byte	0x0
 688              	.LLST4:
 689 007a 9C000000 		.4byte	.LFB4-.Ltext0
 690 007e 9E000000 		.4byte	.LCFI2-.Ltext0
 691 0082 0100     		.2byte	0x1
 692 0084 5D       		.byte	0x5d
 693 0085 9E000000 		.4byte	.LCFI2-.Ltext0
 694 0089 C4010000 		.4byte	.LFE4-.Ltext0
 695 008d 0200     		.2byte	0x2
 696 008f 7D       		.byte	0x7d
 697 0090 08       		.sleb128 8
 698 0091 00000000 		.4byte	0x0
 699 0095 00000000 		.4byte	0x0
 700              	.LLST5:
 701 0099 A0000000 		.4byte	.LVL6-.Ltext0
 702 009d D0000000 		.4byte	.LVL7-.Ltext0
 703 00a1 0100     		.2byte	0x1
 704 00a3 54       		.byte	0x54
 705 00a4 D0000000 		.4byte	.LVL7-.Ltext0
 706 00a8 00010000 		.4byte	.LVL8-.Ltext0
 707 00ac 0100     		.2byte	0x1
 708 00ae 54       		.byte	0x54
 709 00af 00010000 		.4byte	.LVL8-.Ltext0
 710 00b3 30010000 		.4byte	.LVL9-.Ltext0
 711 00b7 0100     		.2byte	0x1
 712 00b9 54       		.byte	0x54
ARM GAS  /cygdrive/c/Users/embedded/AppData/Local/Temp/ccrN5pnw.s 			page 16


 713 00ba 30010000 		.4byte	.LVL9-.Ltext0
 714 00be 60010000 		.4byte	.LVL10-.Ltext0
 715 00c2 0100     		.2byte	0x1
 716 00c4 54       		.byte	0x54
 717 00c5 90010000 		.4byte	.LVL11-.Ltext0
 718 00c9 BE010000 		.4byte	.LVL12-.Ltext0
 719 00cd 0100     		.2byte	0x1
 720 00cf 54       		.byte	0x54
 721 00d0 00000000 		.4byte	0x0
 722 00d4 00000000 		.4byte	0x0
 723              	.LLST6:
 724 00d8 C4010000 		.4byte	.LFB3-.Ltext0
 725 00dc C6010000 		.4byte	.LCFI3-.Ltext0
 726 00e0 0100     		.2byte	0x1
 727 00e2 5D       		.byte	0x5d
 728 00e3 C6010000 		.4byte	.LCFI3-.Ltext0
 729 00e7 EC020000 		.4byte	.LFE3-.Ltext0
 730 00eb 0200     		.2byte	0x2
 731 00ed 7D       		.byte	0x7d
 732 00ee 08       		.sleb128 8
 733 00ef 00000000 		.4byte	0x0
 734 00f3 00000000 		.4byte	0x0
 735              	.LLST7:
 736 00f7 C8010000 		.4byte	.LVL13-.Ltext0
 737 00fb F8010000 		.4byte	.LVL14-.Ltext0
 738 00ff 0100     		.2byte	0x1
 739 0101 54       		.byte	0x54
 740 0102 F8010000 		.4byte	.LVL14-.Ltext0
 741 0106 28020000 		.4byte	.LVL15-.Ltext0
 742 010a 0100     		.2byte	0x1
 743 010c 54       		.byte	0x54
 744 010d 28020000 		.4byte	.LVL15-.Ltext0
 745 0111 58020000 		.4byte	.LVL16-.Ltext0
 746 0115 0100     		.2byte	0x1
 747 0117 54       		.byte	0x54
 748 0118 58020000 		.4byte	.LVL16-.Ltext0
 749 011c 88020000 		.4byte	.LVL17-.Ltext0
 750 0120 0100     		.2byte	0x1
 751 0122 54       		.byte	0x54
 752 0123 88020000 		.4byte	.LVL17-.Ltext0
 753 0127 B8020000 		.4byte	.LVL18-.Ltext0
 754 012b 0100     		.2byte	0x1
 755 012d 54       		.byte	0x54
 756 012e 00000000 		.4byte	0x0
 757 0132 00000000 		.4byte	0x0
 758              	.LLST8:
 759 0136 EC020000 		.4byte	.LFB6-.Ltext0
 760 013a EE020000 		.4byte	.LCFI4-.Ltext0
 761 013e 0100     		.2byte	0x1
 762 0140 5D       		.byte	0x5d
 763 0141 EE020000 		.4byte	.LCFI4-.Ltext0
 764 0145 12030000 		.4byte	.LFE6-.Ltext0
 765 0149 0200     		.2byte	0x2
 766 014b 7D       		.byte	0x7d
 767 014c 04       		.sleb128 4
 768 014d 00000000 		.4byte	0x0
 769 0151 00000000 		.4byte	0x0
ARM GAS  /cygdrive/c/Users/embedded/AppData/Local/Temp/ccrN5pnw.s 			page 17


 770              	.LLST9:
 771 0155 EE020000 		.4byte	.LVL20-.Ltext0
 772 0159 F0020000 		.4byte	.LVL21-.Ltext0
 773 015d 0100     		.2byte	0x1
 774 015f 50       		.byte	0x50
 775 0160 F2020000 		.4byte	.LVL22-.Ltext0
 776 0164 02030000 		.4byte	.LVL23-.Ltext0
 777 0168 0100     		.2byte	0x1
 778 016a 50       		.byte	0x50
 779 016b 04030000 		.4byte	.LVL24-.Ltext0
 780 016f 08030000 		.4byte	.LVL25-.Ltext0
 781 0173 0100     		.2byte	0x1
 782 0175 50       		.byte	0x50
 783 0176 0A030000 		.4byte	.LVL26-.Ltext0
 784 017a 0E030000 		.4byte	.LVL27-.Ltext0
 785 017e 0100     		.2byte	0x1
 786 0180 50       		.byte	0x50
 787 0181 0E030000 		.4byte	.LVL28-.Ltext0
 788 0185 12030000 		.4byte	.LFE6-.Ltext0
 789 0189 0100     		.2byte	0x1
 790 018b 50       		.byte	0x50
 791 018c 00000000 		.4byte	0x0
 792 0190 00000000 		.4byte	0x0
 793              		.section	.debug_info
 794 0000 2A010000 		.4byte	0x12a
 795 0004 0200     		.2byte	0x2
 796 0006 00000000 		.4byte	.Ldebug_abbrev0
 797 000a 04       		.byte	0x4
 798 000b 01       		.uleb128 0x1
 799 000c 00000000 		.4byte	.Ldebug_line0
 800 0010 12030000 		.4byte	.Letext0
 801 0014 00000000 		.4byte	.Ltext0
 802 0018 81000000 		.4byte	.LASF13
 803 001c 01       		.byte	0x1
 804 001d 0D000000 		.4byte	.LASF14
 805 0021 15000000 		.4byte	.LASF15
 806 0025 02       		.uleb128 0x2
 807 0026 74553800 		.ascii	"tU8\000"
 808 002a 02       		.byte	0x2
 809 002b 47       		.byte	0x47
 810 002c 30000000 		.4byte	0x30
 811 0030 03       		.uleb128 0x3
 812 0031 55000000 		.4byte	.LASF1
 813 0035 01       		.byte	0x1
 814 0036 08       		.byte	0x8
 815 0037 04       		.uleb128 0x4
 816 0038 BF000000 		.4byte	.LASF0
 817 003c 02       		.byte	0x2
 818 003d 48       		.byte	0x48
 819 003e 42000000 		.4byte	0x42
 820 0042 03       		.uleb128 0x3
 821 0043 8D000000 		.4byte	.LASF2
 822 0047 02       		.byte	0x2
 823 0048 07       		.byte	0x7
 824 0049 03       		.uleb128 0x3
 825 004a 00000000 		.4byte	.LASF3
 826 004e 04       		.byte	0x4
ARM GAS  /cygdrive/c/Users/embedded/AppData/Local/Temp/ccrN5pnw.s 			page 18


 827 004f 07       		.byte	0x7
 828 0050 03       		.uleb128 0x3
 829 0051 A0000000 		.4byte	.LASF4
 830 0055 01       		.byte	0x1
 831 0056 06       		.byte	0x6
 832 0057 03       		.uleb128 0x3
 833 0058 CA000000 		.4byte	.LASF5
 834 005c 02       		.byte	0x2
 835 005d 05       		.byte	0x5
 836 005e 05       		.uleb128 0x5
 837 005f 696E7400 		.ascii	"int\000"
 838 0063 04       		.byte	0x4
 839 0064 05       		.byte	0x5
 840 0065 04       		.uleb128 0x4
 841 0066 7B000000 		.4byte	.LASF6
 842 006a 02       		.byte	0x2
 843 006b 4D       		.byte	0x4d
 844 006c 30000000 		.4byte	0x30
 845 0070 06       		.uleb128 0x6
 846 0071 A8000000 		.4byte	0xa8
 847 0075 01       		.byte	0x1
 848 0076 B7000000 		.4byte	.LASF9
 849 007a 01       		.byte	0x1
 850 007b 07       		.byte	0x7
 851 007c 01       		.byte	0x1
 852 007d 00000000 		.4byte	.LFB2
 853 0081 78000000 		.4byte	.LFE2
 854 0085 00000000 		.4byte	.LLST0
 855 0089 07       		.uleb128 0x7
 856 008a AC000000 		.4byte	.LASF7
 857 008e 01       		.byte	0x1
 858 008f 07       		.byte	0x7
 859 0090 65000000 		.4byte	0x65
 860 0094 1F000000 		.4byte	.LLST1
 861 0098 07       		.uleb128 0x7
 862 0099 C4000000 		.4byte	.LASF8
 863 009d 01       		.byte	0x1
 864 009e 07       		.byte	0x7
 865 009f 37000000 		.4byte	0x37
 866 00a3 3D000000 		.4byte	.LLST2
 867 00a7 00       		.byte	0x0
 868 00a8 08       		.uleb128 0x8
 869 00a9 01       		.byte	0x1
 870 00aa 48000000 		.4byte	.LASF16
 871 00ae 01       		.byte	0x1
 872 00af 76       		.byte	0x76
 873 00b0 78000000 		.4byte	.LFB5
 874 00b4 9A000000 		.4byte	.LFE5
 875 00b8 5B000000 		.4byte	.LLST3
 876 00bc 09       		.uleb128 0x9
 877 00bd E2000000 		.4byte	0xe2
 878 00c1 01       		.byte	0x1
 879 00c2 71000000 		.4byte	.LASF10
 880 00c6 01       		.byte	0x1
 881 00c7 48       		.byte	0x48
 882 00c8 9C000000 		.4byte	.LFB4
 883 00cc C4010000 		.4byte	.LFE4
ARM GAS  /cygdrive/c/Users/embedded/AppData/Local/Temp/ccrN5pnw.s 			page 19


 884 00d0 7A000000 		.4byte	.LLST4
 885 00d4 0A       		.uleb128 0xa
 886 00d5 6900     		.ascii	"i\000"
 887 00d7 01       		.byte	0x1
 888 00d8 49       		.byte	0x49
 889 00d9 37000000 		.4byte	0x37
 890 00dd 99000000 		.4byte	.LLST5
 891 00e1 00       		.byte	0x0
 892 00e2 09       		.uleb128 0x9
 893 00e3 08010000 		.4byte	0x108
 894 00e7 01       		.byte	0x1
 895 00e8 63000000 		.4byte	.LASF11
 896 00ec 01       		.byte	0x1
 897 00ed 1A       		.byte	0x1a
 898 00ee C4010000 		.4byte	.LFB3
 899 00f2 EC020000 		.4byte	.LFE3
 900 00f6 D8000000 		.4byte	.LLST6
 901 00fa 0A       		.uleb128 0xa
 902 00fb 6900     		.ascii	"i\000"
 903 00fd 01       		.byte	0x1
 904 00fe 1B       		.byte	0x1b
 905 00ff 37000000 		.4byte	0x37
 906 0103 F7000000 		.4byte	.LLST7
 907 0107 00       		.byte	0x0
 908 0108 0B       		.uleb128 0xb
 909 0109 01       		.byte	0x1
 910 010a D4000000 		.4byte	.LASF17
 911 010e 01       		.byte	0x1
 912 010f 7D       		.byte	0x7d
 913 0110 01       		.byte	0x1
 914 0111 EC020000 		.4byte	.LFB6
 915 0115 12030000 		.4byte	.LFE6
 916 0119 36010000 		.4byte	.LLST8
 917 011d 07       		.uleb128 0x7
 918 011e 41000000 		.4byte	.LASF12
 919 0122 01       		.byte	0x1
 920 0123 7D       		.byte	0x7d
 921 0124 25000000 		.4byte	0x25
 922 0128 55010000 		.4byte	.LLST9
 923 012c 00       		.byte	0x0
 924 012d 00       		.byte	0x0
 925              		.section	.debug_abbrev
 926 0000 01       		.uleb128 0x1
 927 0001 11       		.uleb128 0x11
 928 0002 01       		.byte	0x1
 929 0003 10       		.uleb128 0x10
 930 0004 06       		.uleb128 0x6
 931 0005 12       		.uleb128 0x12
 932 0006 01       		.uleb128 0x1
 933 0007 11       		.uleb128 0x11
 934 0008 01       		.uleb128 0x1
 935 0009 25       		.uleb128 0x25
 936 000a 0E       		.uleb128 0xe
 937 000b 13       		.uleb128 0x13
 938 000c 0B       		.uleb128 0xb
 939 000d 03       		.uleb128 0x3
 940 000e 0E       		.uleb128 0xe
ARM GAS  /cygdrive/c/Users/embedded/AppData/Local/Temp/ccrN5pnw.s 			page 20


 941 000f 1B       		.uleb128 0x1b
 942 0010 0E       		.uleb128 0xe
 943 0011 00       		.byte	0x0
 944 0012 00       		.byte	0x0
 945 0013 02       		.uleb128 0x2
 946 0014 16       		.uleb128 0x16
 947 0015 00       		.byte	0x0
 948 0016 03       		.uleb128 0x3
 949 0017 08       		.uleb128 0x8
 950 0018 3A       		.uleb128 0x3a
 951 0019 0B       		.uleb128 0xb
 952 001a 3B       		.uleb128 0x3b
 953 001b 0B       		.uleb128 0xb
 954 001c 49       		.uleb128 0x49
 955 001d 13       		.uleb128 0x13
 956 001e 00       		.byte	0x0
 957 001f 00       		.byte	0x0
 958 0020 03       		.uleb128 0x3
 959 0021 24       		.uleb128 0x24
 960 0022 00       		.byte	0x0
 961 0023 03       		.uleb128 0x3
 962 0024 0E       		.uleb128 0xe
 963 0025 0B       		.uleb128 0xb
 964 0026 0B       		.uleb128 0xb
 965 0027 3E       		.uleb128 0x3e
 966 0028 0B       		.uleb128 0xb
 967 0029 00       		.byte	0x0
 968 002a 00       		.byte	0x0
 969 002b 04       		.uleb128 0x4
 970 002c 16       		.uleb128 0x16
 971 002d 00       		.byte	0x0
 972 002e 03       		.uleb128 0x3
 973 002f 0E       		.uleb128 0xe
 974 0030 3A       		.uleb128 0x3a
 975 0031 0B       		.uleb128 0xb
 976 0032 3B       		.uleb128 0x3b
 977 0033 0B       		.uleb128 0xb
 978 0034 49       		.uleb128 0x49
 979 0035 13       		.uleb128 0x13
 980 0036 00       		.byte	0x0
 981 0037 00       		.byte	0x0
 982 0038 05       		.uleb128 0x5
 983 0039 24       		.uleb128 0x24
 984 003a 00       		.byte	0x0
 985 003b 03       		.uleb128 0x3
 986 003c 08       		.uleb128 0x8
 987 003d 0B       		.uleb128 0xb
 988 003e 0B       		.uleb128 0xb
 989 003f 3E       		.uleb128 0x3e
 990 0040 0B       		.uleb128 0xb
 991 0041 00       		.byte	0x0
 992 0042 00       		.byte	0x0
 993 0043 06       		.uleb128 0x6
 994 0044 2E       		.uleb128 0x2e
 995 0045 01       		.byte	0x1
 996 0046 01       		.uleb128 0x1
 997 0047 13       		.uleb128 0x13
ARM GAS  /cygdrive/c/Users/embedded/AppData/Local/Temp/ccrN5pnw.s 			page 21


 998 0048 3F       		.uleb128 0x3f
 999 0049 0C       		.uleb128 0xc
 1000 004a 03       		.uleb128 0x3
 1001 004b 0E       		.uleb128 0xe
 1002 004c 3A       		.uleb128 0x3a
 1003 004d 0B       		.uleb128 0xb
 1004 004e 3B       		.uleb128 0x3b
 1005 004f 0B       		.uleb128 0xb
 1006 0050 27       		.uleb128 0x27
 1007 0051 0C       		.uleb128 0xc
 1008 0052 11       		.uleb128 0x11
 1009 0053 01       		.uleb128 0x1
 1010 0054 12       		.uleb128 0x12
 1011 0055 01       		.uleb128 0x1
 1012 0056 40       		.uleb128 0x40
 1013 0057 06       		.uleb128 0x6
 1014 0058 00       		.byte	0x0
 1015 0059 00       		.byte	0x0
 1016 005a 07       		.uleb128 0x7
 1017 005b 05       		.uleb128 0x5
 1018 005c 00       		.byte	0x0
 1019 005d 03       		.uleb128 0x3
 1020 005e 0E       		.uleb128 0xe
 1021 005f 3A       		.uleb128 0x3a
 1022 0060 0B       		.uleb128 0xb
 1023 0061 3B       		.uleb128 0x3b
 1024 0062 0B       		.uleb128 0xb
 1025 0063 49       		.uleb128 0x49
 1026 0064 13       		.uleb128 0x13
 1027 0065 02       		.uleb128 0x2
 1028 0066 06       		.uleb128 0x6
 1029 0067 00       		.byte	0x0
 1030 0068 00       		.byte	0x0
 1031 0069 08       		.uleb128 0x8
 1032 006a 2E       		.uleb128 0x2e
 1033 006b 00       		.byte	0x0
 1034 006c 3F       		.uleb128 0x3f
 1035 006d 0C       		.uleb128 0xc
 1036 006e 03       		.uleb128 0x3
 1037 006f 0E       		.uleb128 0xe
 1038 0070 3A       		.uleb128 0x3a
 1039 0071 0B       		.uleb128 0xb
 1040 0072 3B       		.uleb128 0x3b
 1041 0073 0B       		.uleb128 0xb
 1042 0074 11       		.uleb128 0x11
 1043 0075 01       		.uleb128 0x1
 1044 0076 12       		.uleb128 0x12
 1045 0077 01       		.uleb128 0x1
 1046 0078 40       		.uleb128 0x40
 1047 0079 06       		.uleb128 0x6
 1048 007a 00       		.byte	0x0
 1049 007b 00       		.byte	0x0
 1050 007c 09       		.uleb128 0x9
 1051 007d 2E       		.uleb128 0x2e
 1052 007e 01       		.byte	0x1
 1053 007f 01       		.uleb128 0x1
 1054 0080 13       		.uleb128 0x13
ARM GAS  /cygdrive/c/Users/embedded/AppData/Local/Temp/ccrN5pnw.s 			page 22


 1055 0081 3F       		.uleb128 0x3f
 1056 0082 0C       		.uleb128 0xc
 1057 0083 03       		.uleb128 0x3
 1058 0084 0E       		.uleb128 0xe
 1059 0085 3A       		.uleb128 0x3a
 1060 0086 0B       		.uleb128 0xb
 1061 0087 3B       		.uleb128 0x3b
 1062 0088 0B       		.uleb128 0xb
 1063 0089 11       		.uleb128 0x11
 1064 008a 01       		.uleb128 0x1
 1065 008b 12       		.uleb128 0x12
 1066 008c 01       		.uleb128 0x1
 1067 008d 40       		.uleb128 0x40
 1068 008e 06       		.uleb128 0x6
 1069 008f 00       		.byte	0x0
 1070 0090 00       		.byte	0x0
 1071 0091 0A       		.uleb128 0xa
 1072 0092 34       		.uleb128 0x34
 1073 0093 00       		.byte	0x0
 1074 0094 03       		.uleb128 0x3
 1075 0095 08       		.uleb128 0x8
 1076 0096 3A       		.uleb128 0x3a
 1077 0097 0B       		.uleb128 0xb
 1078 0098 3B       		.uleb128 0x3b
 1079 0099 0B       		.uleb128 0xb
 1080 009a 49       		.uleb128 0x49
 1081 009b 13       		.uleb128 0x13
 1082 009c 02       		.uleb128 0x2
 1083 009d 06       		.uleb128 0x6
 1084 009e 00       		.byte	0x0
 1085 009f 00       		.byte	0x0
 1086 00a0 0B       		.uleb128 0xb
 1087 00a1 2E       		.uleb128 0x2e
 1088 00a2 01       		.byte	0x1
 1089 00a3 3F       		.uleb128 0x3f
 1090 00a4 0C       		.uleb128 0xc
 1091 00a5 03       		.uleb128 0x3
 1092 00a6 0E       		.uleb128 0xe
 1093 00a7 3A       		.uleb128 0x3a
 1094 00a8 0B       		.uleb128 0xb
 1095 00a9 3B       		.uleb128 0x3b
 1096 00aa 0B       		.uleb128 0xb
 1097 00ab 27       		.uleb128 0x27
 1098 00ac 0C       		.uleb128 0xc
 1099 00ad 11       		.uleb128 0x11
 1100 00ae 01       		.uleb128 0x1
 1101 00af 12       		.uleb128 0x12
 1102 00b0 01       		.uleb128 0x1
 1103 00b1 40       		.uleb128 0x40
 1104 00b2 06       		.uleb128 0x6
 1105 00b3 00       		.byte	0x0
 1106 00b4 00       		.byte	0x0
 1107 00b5 00       		.byte	0x0
 1108              		.section	.debug_pubnames,"",%progbits
 1109 0000 5B000000 		.4byte	0x5b
 1110 0004 0200     		.2byte	0x2
 1111 0006 00000000 		.4byte	.Ldebug_info0
ARM GAS  /cygdrive/c/Users/embedded/AppData/Local/Temp/ccrN5pnw.s 			page 23


 1112 000a 2E010000 		.4byte	0x12e
 1113 000e 70000000 		.4byte	0x70
 1114 0012 64656C61 		.ascii	"delayMS\000"
 1114      794D5300 
 1115 001a A8000000 		.4byte	0xa8
 1116 001e 6661696C 		.ascii	"failureSound\000"
 1116      75726553 
 1116      6F756E64 
 1116      00
 1117 002b BC000000 		.4byte	0xbc
 1118 002f 67616D65 		.ascii	"gameMusic\000"
 1118      4D757369 
 1118      6300
 1119 0039 E2000000 		.4byte	0xe2
 1120 003d 6D61696E 		.ascii	"mainMenuMusic\000"
 1120      4D656E75 
 1120      4D757369 
 1120      6300
 1121 004b 08010000 		.4byte	0x108
 1122 004f 73776974 		.ascii	"switchMusic\000"
 1122      63684D75 
 1122      73696300 
 1123 005b 00000000 		.4byte	0x0
 1124              		.section	.debug_aranges,"",%progbits
 1125 0000 1C000000 		.4byte	0x1c
 1126 0004 0200     		.2byte	0x2
 1127 0006 00000000 		.4byte	.Ldebug_info0
 1128 000a 04       		.byte	0x4
 1129 000b 00       		.byte	0x0
 1130 000c 0000     		.2byte	0x0
 1131 000e 0000     		.2byte	0x0
 1132 0010 00000000 		.4byte	.Ltext0
 1133 0014 12030000 		.4byte	.Letext0-.Ltext0
 1134 0018 00000000 		.4byte	0x0
 1135 001c 00000000 		.4byte	0x0
 1136              		.section	.debug_str,"MS",%progbits,1
 1137              	.LASF3:
 1138 0000 756E7369 		.ascii	"unsigned int\000"
 1138      676E6564 
 1138      20696E74 
 1138      00
 1139              	.LASF14:
 1140 000d 6D757369 		.ascii	"music.c\000"
 1140      632E6300 
 1141              	.LASF15:
 1142 0015 2F637967 		.ascii	"/cygdrive/c/Embedded/2104MiniDemo/Gameboard\000"
 1142      64726976 
 1142      652F632F 
 1142      456D6265 
 1142      64646564 
 1143              	.LASF12:
 1144 0041 6F707469 		.ascii	"option\000"
 1144      6F6E00
 1145              	.LASF16:
 1146 0048 6661696C 		.ascii	"failureSound\000"
 1146      75726553 
 1146      6F756E64 
ARM GAS  /cygdrive/c/Users/embedded/AppData/Local/Temp/ccrN5pnw.s 			page 24


 1146      00
 1147              	.LASF1:
 1148 0055 756E7369 		.ascii	"unsigned char\000"
 1148      676E6564 
 1148      20636861 
 1148      7200
 1149              	.LASF11:
 1150 0063 6D61696E 		.ascii	"mainMenuMusic\000"
 1150      4D656E75 
 1150      4D757369 
 1150      6300
 1151              	.LASF10:
 1152 0071 67616D65 		.ascii	"gameMusic\000"
 1152      4D757369 
 1152      6300
 1153              	.LASF6:
 1154 007b 74426F6F 		.ascii	"tBool\000"
 1154      6C00
 1155              	.LASF13:
 1156 0081 474E5520 		.ascii	"GNU C 4.1.1\000"
 1156      4320342E 
 1156      312E3100 
 1157              	.LASF2:
 1158 008d 73686F72 		.ascii	"short unsigned int\000"
 1158      7420756E 
 1158      7369676E 
 1158      65642069 
 1158      6E7400
 1159              	.LASF4:
 1160 00a0 7369676E 		.ascii	"signed char\000"
 1160      65642063 
 1160      68617200 
 1161              	.LASF7:
 1162 00ac 77686963 		.ascii	"whichTimer\000"
 1162      6854696D 
 1162      657200
 1163              	.LASF9:
 1164 00b7 64656C61 		.ascii	"delayMS\000"
 1164      794D5300 
 1165              	.LASF0:
 1166 00bf 74553136 		.ascii	"tU16\000"
 1166      00
 1167              	.LASF8:
 1168 00c4 64656C61 		.ascii	"delay\000"
 1168      7900
 1169              	.LASF5:
 1170 00ca 73686F72 		.ascii	"short int\000"
 1170      7420696E 
 1170      7400
 1171              	.LASF17:
 1172 00d4 73776974 		.ascii	"switchMusic\000"
 1172      63684D75 
 1172      73696300 
 1173              		.ident	"GCC: (GNU) 4.1.1"
ARM GAS  /cygdrive/c/Users/embedded/AppData/Local/Temp/ccrN5pnw.s 			page 25


DEFINED SYMBOLS
                            *ABS*:00000000 music.c
/cygdrive/c/Users/embedded/AppData/Local/Temp/ccrN5pnw.s:1      .text:00000000 $t
/cygdrive/c/Users/embedded/AppData/Local/Temp/ccrN5pnw.s:16     .text:00000000 delayMS
/cygdrive/c/Users/embedded/AppData/Local/Temp/ccrN5pnw.s:102    .text:00000068 $d
/cygdrive/c/Users/embedded/AppData/Local/Temp/ccrN5pnw.s:113    .text:00000078 failureSound
/cygdrive/c/Users/embedded/AppData/Local/Temp/ccrN5pnw.s:110    .text:00000078 $t
/cygdrive/c/Users/embedded/AppData/Local/Temp/ccrN5pnw.s:143    .text:0000009c gameMusic
/cygdrive/c/Users/embedded/AppData/Local/Temp/ccrN5pnw.s:324    .text:000001c4 mainMenuMusic
/cygdrive/c/Users/embedded/AppData/Local/Temp/ccrN5pnw.s:505    .text:000002ec switchMusic

UNDEFINED SYMBOLS
setBuzzer
