ARM GAS  /cygdrive/c/Users/embedded/AppData/Local/Temp/ccirHCzM.s 			page 1


   1              		.code	16
   2              		.file	"tetris.c"
   3              		.section	.debug_abbrev,"",%progbits
   4              	.Ldebug_abbrev0:
   5              		.section	.debug_info,"",%progbits
   6              	.Ldebug_info0:
   7              		.section	.debug_line,"",%progbits
   8              	.Ldebug_line0:
   9 0000 A1000000 		.text
   9      02005300 
   9      00000201 
   9      FB0E0D00 
   9      01010101 
  10              	.Ltext0:
  11              		.align	2
  12              		.global	delayMS
  13              		.code 16
  14              		.thumb_func
  15              		.type	delayMS, %function
  16              	delayMS:
  17              	.LFB2:
  18              		.file 1 "tetris.c"
   1:tetris.c      **** #include "../pre_emptive_os/api/osapi.h"
   2:tetris.c      **** #include "../pre_emptive_os/api/general.h"
   3:tetris.c      **** #include <printf_P.h>
   4:tetris.c      **** #include <ea_init.h>
   5:tetris.c      **** #include <stdlib.h>
   6:tetris.c      **** #include "lcd.h"
   7:tetris.c      **** #include "key.h"
   8:tetris.c      **** #include "select.h"
   9:tetris.c      **** #include "tetris.h"
  10:tetris.c      **** #include "../startup/lpc2xxx.h"
  11:tetris.c      **** 
  12:tetris.c      **** #include "select.h"
  13:tetris.c      **** #define timer (T1TCR & 0x01)
  14:tetris.c      **** 
  15:tetris.c      **** /* Stale */
  16:tetris.c      **** tU8 boxesList[12][18];
  17:tetris.c      **** 
  18:tetris.c      **** void delayMS(tBool whichTimer,tU16 delay)
  19:tetris.c      **** {
  19              		.loc 1 19 0
  20 0000 10B5     		push	{r4, lr}
  21              	.LCFI0:
  22              	.LVL0:
  23              		.loc 1 19 0
  24 0002 0006     		lsl	r0, r0, #24
  25              	.LVL1:
  26 0004 040E     		lsr	r4, r0, #24
  27              	.LVL2:
  28 0006 0904     		lsl	r1, r1, #16
  29              	.LVL3:
  30 0008 080C     		lsr	r0, r1, #16
  31              	.LVL4:
  20:tetris.c      **** 	if(whichTimer == TRUE){
  32              		.loc 1 20 0
  33 000a 012C     		cmp	r4, #1
ARM GAS  /cygdrive/c/Users/embedded/AppData/Local/Temp/ccirHCzM.s 			page 2


  34 000c 16D1     		bne	.L2
  21:tetris.c      **** 		//funkcja ustawia timer i czeka na jego zakoñczenie
  22:tetris.c      **** 		T1TCR = 0x02;          //stop and reset timer
  35              		.loc 1 22 0
  36 000e 1649     		ldr	r1, .L8
  37 0010 0223     		mov	r3, #2
  38 0012 0B60     		str	r3, [r1]
  23:tetris.c      **** 		T1PR  = 0x00;          //ustaw prescaler na 0
  39              		.loc 1 23 0
  40 0014 154B     		ldr	r3, .L8+4
  41 0016 0022     		mov	r2, #0
  42 0018 1A60     		str	r2, [r3]
  24:tetris.c      **** 		T1MR0 = delay * ((CORE_FREQ)/ (1000 * PBSD));
  43              		.loc 1 24 0
  44 001a 154B     		ldr	r3, .L8+8
  45 001c 021C     		mov	r2, r0
  46 001e 5A43     		mul	r2, r3
  47 0020 144B     		ldr	r3, .L8+12
  48 0022 1A60     		str	r2, [r3]
  25:tetris.c      **** 		T1IR  = 0xff;          //ustaw flagi przerwan
  49              		.loc 1 25 0
  50 0024 FF22     		mov	r2, #255
  51 0026 183B     		sub	r3, r3, #24
  52 0028 1A60     		str	r2, [r3]
  26:tetris.c      **** 		T1MCR = 0x04;          //zatrzymaj timer po MR0
  53              		.loc 1 26 0
  54 002a 0422     		mov	r2, #4
  55 002c 1433     		add	r3, r3, #20
  56 002e 1A60     		str	r2, [r3]
  27:tetris.c      **** 		T1TCR = 0x01;          //start
  57              		.loc 1 27 0
  58 0030 0C60     		str	r4, [r1]
  59              	.L4:
  28:tetris.c      **** 
  29:tetris.c      **** 		//czekaj na przerwanie
  30:tetris.c      **** 		while (T1TCR & 0x01);
  60              		.loc 1 30 0
  61 0032 0D4B     		ldr	r3, .L8
  62 0034 1B68     		ldr	r3, [r3]
  63 0036 DA07     		lsl	r2, r3, #31
  64 0038 13D5     		bpl	.L6
  65 003a FAE7     		b	.L4
  66              	.L2:
  31:tetris.c      **** 	}
  32:tetris.c      **** 	else
  33:tetris.c      **** 	{
  34:tetris.c      **** 		//funkcja ustawia timer i pozwala na zastosowanie go w zewnêtrznej petli poprzez While(timer)
  35:tetris.c      **** 		T1TCR = 0x02;
  67              		.loc 1 35 0
  68 003c 0A49     		ldr	r1, .L8
  69 003e 0223     		mov	r3, #2
  70 0040 0B60     		str	r3, [r1]
  36:tetris.c      **** 		T1PR  = 0x00;
  71              		.loc 1 36 0
  72 0042 0A4B     		ldr	r3, .L8+4
  73 0044 0022     		mov	r2, #0
  74 0046 1A60     		str	r2, [r3]
ARM GAS  /cygdrive/c/Users/embedded/AppData/Local/Temp/ccirHCzM.s 			page 3


  37:tetris.c      **** 		T1MR0 = delay * ((CORE_FREQ)/ (1000 * PBSD));
  75              		.loc 1 37 0
  76 0048 094B     		ldr	r3, .L8+8
  77 004a 021C     		mov	r2, r0
  78 004c 5A43     		mul	r2, r3
  79 004e 094B     		ldr	r3, .L8+12
  80 0050 1A60     		str	r2, [r3]
  38:tetris.c      **** 		T1IR  = 0xff;
  81              		.loc 1 38 0
  82 0052 FF22     		mov	r2, #255
  83 0054 183B     		sub	r3, r3, #24
  84 0056 1A60     		str	r2, [r3]
  39:tetris.c      **** 		T1MCR = 0x04;
  85              		.loc 1 39 0
  86 0058 1433     		add	r3, r3, #20
  87 005a 0422     		mov	r2, #4
  88 005c 1A60     		str	r2, [r3]
  40:tetris.c      **** 		T1TCR = 0x01;
  89              		.loc 1 40 0
  90 005e 0123     		mov	r3, #1
  91 0060 0B60     		str	r3, [r1]
  92              	.L6:
  41:tetris.c      **** 	}
  42:tetris.c      **** }
  93              		.loc 1 42 0
  94              		@ sp needed for prologue
  95              	.LVL5:
  96 0062 10BC     		pop	{r4}
  97 0064 01BC     		pop	{r0}
  98 0066 0047     		bx	r0
  99              	.L9:
 100              		.align	2
 101              	.L8:
 102 0068 048000E0 		.word	-536838140
 103 006c 0C8000E0 		.word	-536838132
 104 0070 99390000 		.word	14745
 105 0074 188000E0 		.word	-536838120
 106              	.LFE2:
 107              		.size	delayMS, .-delayMS
 108              		.align	2
 109              		.global	applyGravity
 110              		.code 16
 111              		.thumb_func
 112              		.type	applyGravity, %function
 113              	applyGravity:
 114              	.LFB4:
  43:tetris.c      **** 
  44:tetris.c      **** void drawBoard() {
  45:tetris.c      **** 	int i;
  46:tetris.c      **** 	int j;
  47:tetris.c      **** 	for (i = 0; i < 12; i++) {
  48:tetris.c      **** 		for (j = 0; j < 18; j++) {
  49:tetris.c      **** 			if (boxesList[i][j] != 0) {
  50:tetris.c      **** 				lcdRect(i*7 + 22, j*7, 5, 5, 255);
  51:tetris.c      **** 			}
  52:tetris.c      **** 		}
  53:tetris.c      **** 	}
ARM GAS  /cygdrive/c/Users/embedded/AppData/Local/Temp/ccirHCzM.s 			page 4


  54:tetris.c      **** }
  55:tetris.c      **** 
  56:tetris.c      **** void applyGravity() {
 115              		.loc 1 56 0
 116 0078 30B5     		push	{r4, r5, lr}
 117              	.LCFI1:
 118              		.loc 1 56 0
 119 007a 0C25     		mov	r5, #12
 120              	.LVL6:
 121 007c 10E0     		b	.L11
 122              	.LVL7:
 123              	.L12:
  57:tetris.c      **** 	int i;
  58:tetris.c      **** 		int j;
  59:tetris.c      **** 		for (i = 12; i > 0; i--) {
  60:tetris.c      **** 			for (j = 17; j > 0; j--) {
  61:tetris.c      **** 				if (boxesList[i][j + 1] == 0 && boxesList[i][j] != 0) {
 124              		.loc 1 61 0
 125 007e 1478     		ldrb	r4, [r2]
 126 0080 002C     		cmp	r4, #0
 127 0082 06D1     		bne	.L13
 128              		.loc 1 56 0
 129 0084 511E     		sub	r1, r2, #1
 130              		.loc 1 61 0
 131 0086 0B78     		ldrb	r3, [r1]
 132 0088 002B     		cmp	r3, #0
 133 008a 02D0     		beq	.L13
  62:tetris.c      **** 					boxesList[i][j] = 0;
  63:tetris.c      **** 					boxesList[i][j + 1] = 1;
 134              		.loc 1 63 0
 135 008c 0123     		mov	r3, #1
 136              		.loc 1 62 0
 137 008e 0C70     		strb	r4, [r1]
 138              		.loc 1 63 0
 139 0090 1370     		strb	r3, [r2]
 140              	.L13:
 141              		.loc 1 60 0
 142 0092 0138     		sub	r0, r0, #1
 143 0094 013A     		sub	r2, r2, #1
 144 0096 0028     		cmp	r0, #0
 145 0098 F1D1     		bne	.L12
 146              		.loc 1 59 0
 147 009a 013D     		sub	r5, r5, #1
 148 009c 002D     		cmp	r5, #0
 149 009e 07D0     		beq	.L18
 150              	.L11:
  64:tetris.c      **** 				}
  65:tetris.c      **** 			}
  66:tetris.c      **** 		}
  67:tetris.c      **** }
 151              		.loc 1 67 0
 152 00a0 EB00     		lsl	r3, r5, #3
 153 00a2 5B19     		add	r3, r3, r5
 154 00a4 5B00     		lsl	r3, r3, #1
 155 00a6 044A     		ldr	r2, .L21
 156 00a8 1233     		add	r3, r3, #18
 157 00aa 9A18     		add	r2, r3, r2
ARM GAS  /cygdrive/c/Users/embedded/AppData/Local/Temp/ccirHCzM.s 			page 5


 158 00ac 1120     		mov	r0, #17
 159 00ae E6E7     		b	.L12
 160              	.L18:
 161              		@ sp needed for prologue
 162              	.LVL8:
 163 00b0 30BC     		pop	{r4, r5}
 164 00b2 01BC     		pop	{r0}
 165 00b4 0047     		bx	r0
 166              	.L22:
 167 00b6 0000     		.align	2
 168              	.L21:
 169 00b8 00000000 		.word	boxesList
 170              	.LFE4:
 171              		.size	applyGravity, .-applyGravity
 172              		.align	2
 173              		.global	drawBoard
 174              		.code 16
 175              		.thumb_func
 176              		.type	drawBoard, %function
 177              	drawBoard:
 178              	.LFB3:
 179              		.loc 1 44 0
 180 00bc F0B5     		push	{r4, r5, r6, r7, lr}
 181              	.LCFI2:
 182 00be 81B0     		sub	sp, sp, #4
 183              	.LCFI3:
 184              		.loc 1 44 0
 185 00c0 0026     		mov	r6, #0
 186              	.LVL9:
 187 00c2 1627     		mov	r7, #22
 188 00c4 12E0     		b	.L24
 189              	.L25:
 190              		.loc 1 49 0
 191 00c6 2B78     		ldrb	r3, [r5]
 192 00c8 002B     		cmp	r3, #0
 193 00ca 07D0     		beq	.L26
 194              		.loc 1 50 0
 195 00cc FF23     		mov	r3, #255
 196 00ce 0093     		str	r3, [sp]
 197 00d0 381C     		mov	r0, r7
 198 00d2 211C     		mov	r1, r4
 199 00d4 0522     		mov	r2, #5
 200 00d6 0523     		mov	r3, #5
 201 00d8 FFF7FEFF 		bl	lcdRect
 202              	.L26:
 203 00dc 0734     		add	r4, r4, #7
 204 00de 0135     		add	r5, r5, #1
 205              		.loc 1 48 0
 206 00e0 7E2C     		cmp	r4, #126
 207 00e2 F0D1     		bne	.L25
 208              		.loc 1 47 0
 209 00e4 0136     		add	r6, r6, #1
 210 00e6 0737     		add	r7, r7, #7
 211 00e8 0C2E     		cmp	r6, #12
 212 00ea 06D0     		beq	.L30
 213              	.L24:
 214              		.loc 1 54 0
ARM GAS  /cygdrive/c/Users/embedded/AppData/Local/Temp/ccirHCzM.s 			page 6


 215 00ec F300     		lsl	r3, r6, #3
 216 00ee 9B19     		add	r3, r3, r6
 217 00f0 044A     		ldr	r2, .L33
 218 00f2 5B00     		lsl	r3, r3, #1
 219 00f4 9D18     		add	r5, r3, r2
 220 00f6 0024     		mov	r4, #0
 221 00f8 E5E7     		b	.L25
 222              	.L30:
 223 00fa 01B0     		add	sp, sp, #4
 224              		@ sp needed for prologue
 225              	.LVL10:
 226 00fc F0BC     		pop	{r4, r5, r6, r7}
 227 00fe 01BC     		pop	{r0}
 228 0100 0047     		bx	r0
 229              	.L34:
 230 0102 0000     		.align	2
 231              	.L33:
 232 0104 00000000 		.word	boxesList
 233              	.LFE3:
 234              		.size	drawBoard, .-drawBoard
 235              		.align	2
 236              		.global	playTetris
 237              		.code 16
 238              		.thumb_func
 239              		.type	playTetris, %function
 240              	playTetris:
 241              	.LFB5:
  68:tetris.c      **** 
  69:tetris.c      **** void playTetris () {
 242              		.loc 1 69 0
 243 0108 00B5     		push	{lr}
 244              	.LCFI4:
  70:tetris.c      **** 	lcdClrscr();
 245              		.loc 1 70 0
 246 010a FFF7FEFF 		bl	lcdClrscr
 247 010e 0020     		mov	r0, #0
 248              	.LVL11:
 249 0110 1FE0     		b	.L36
 250              	.LVL12:
 251              	.L37:
  71:tetris.c      **** 	int i;
  72:tetris.c      **** 	int j;
  73:tetris.c      **** 	for (i = 0; i < 12; i++) {
  74:tetris.c      **** 		for (j = 0; j <18; j++) {
  75:tetris.c      **** 			boxesList[i][j] = 0;
 252              		.loc 1 75 0
 253 0112 0023     		mov	r3, #0
 254              		.loc 1 74 0
 255 0114 0132     		add	r2, r2, #1
 256              		.loc 1 75 0
 257 0116 0B70     		strb	r3, [r1]
 258              		.loc 1 74 0
 259 0118 0131     		add	r1, r1, #1
 260 011a 122A     		cmp	r2, #18
 261 011c F9D1     		bne	.L37
 262              		.loc 1 73 0
 263 011e 0130     		add	r0, r0, #1
ARM GAS  /cygdrive/c/Users/embedded/AppData/Local/Temp/ccirHCzM.s 			page 7


 264 0120 0C28     		cmp	r0, #12
 265 0122 16D1     		bne	.L36
  76:tetris.c      **** 		}
  77:tetris.c      **** 	}
  78:tetris.c      **** 	boxesList[5][0] = 1;
 266              		.loc 1 78 0
 267 0124 0E4A     		ldr	r2, .L46
 268              	.LVL13:
 269 0126 131C     		mov	r3, r2
 270 0128 0121     		mov	r1, #1
 271 012a 5A33     		add	r3, r3, #90
 272 012c 1970     		strb	r1, [r3]
  79:tetris.c      **** 	boxesList[6][0] = 1;
 273              		.loc 1 79 0
 274 012e 1233     		add	r3, r3, #18
 275 0130 1970     		strb	r1, [r3]
  80:tetris.c      **** 	boxesList[7][0] = 1;
  81:tetris.c      **** 	boxesList[8][0] = 1;
 276              		.loc 1 81 0
 277 0132 9032     		add	r2, r2, #144
 278              		.loc 1 80 0
 279 0134 1233     		add	r3, r3, #18
 280 0136 1970     		strb	r1, [r3]
 281              		.loc 1 81 0
 282 0138 1170     		strb	r1, [r2]
 283              	.L40:
  82:tetris.c      **** 
  83:tetris.c      **** 	while (1) {
  84:tetris.c      **** 		lcdClrscr();
 284              		.loc 1 84 0
 285 013a FFF7FEFF 		bl	lcdClrscr
 286              	.LVL14:
  85:tetris.c      **** 		applyGravity();
 287              		.loc 1 85 0
 288 013e FFF7FEFF 		bl	applyGravity
  86:tetris.c      **** 		drawBoard();
 289              		.loc 1 86 0
 290 0142 FFF7FEFF 		bl	drawBoard
  87:tetris.c      **** 		delayMS(TRUE, 1000);
 291              		.loc 1 87 0
 292 0146 FA21     		mov	r1, #250
 293 0148 0120     		mov	r0, #1
 294 014a 8900     		lsl	r1, r1, #2
 295 014c FFF7FEFF 		bl	delayMS
 296 0150 F3E7     		b	.L40
 297              	.LVL15:
 298              	.L36:
  88:tetris.c      **** 	}
 299              		.loc 1 88 0
 300 0152 C300     		lsl	r3, r0, #3
 301 0154 024A     		ldr	r2, .L46
 302              	.LVL16:
 303 0156 1B18     		add	r3, r3, r0
 304 0158 5B00     		lsl	r3, r3, #1
 305 015a 9918     		add	r1, r3, r2
 306 015c 0022     		mov	r2, #0
 307              	.LVL17:
ARM GAS  /cygdrive/c/Users/embedded/AppData/Local/Temp/ccirHCzM.s 			page 8


 308 015e D8E7     		b	.L37
 309              	.L47:
 310              		.align	2
 311              	.L46:
 312 0160 00000000 		.word	boxesList
 313              	.LFE5:
 314              		.size	playTetris, .-playTetris
 315              		.comm	boxesList,216,1
 316              		.section	.debug_frame,"",%progbits
 317              	.Lframe0:
 318 0000 0C000000 		.4byte	.LECIE0-.LSCIE0
 319              	.LSCIE0:
 320 0004 FFFFFFFF 		.4byte	0xffffffff
 321 0008 01       		.byte	0x1
 322 0009 00       		.ascii	"\000"
 323 000a 01       		.uleb128 0x1
 324 000b 7C       		.sleb128 -4
 325 000c 0E       		.byte	0xe
 326 000d 0C       		.byte	0xc
 327 000e 0D       		.uleb128 0xd
 328 000f 00       		.uleb128 0x0
 329              		.align	2
 330              	.LECIE0:
 331              	.LSFDE0:
 332 0010 14000000 		.4byte	.LEFDE0-.LASFDE0
 333              	.LASFDE0:
 334 0014 00000000 		.4byte	.Lframe0
 335 0018 00000000 		.4byte	.LFB2
 336 001c 78000000 		.4byte	.LFE2-.LFB2
 337 0020 42       		.byte	0x4
 338              		.4byte	.LCFI0-.LFB2
 339 0021 0E       		.byte	0xe
 340 0022 08       		.uleb128 0x8
 341 0023 84       		.byte	0x84
 342 0024 02       		.uleb128 0x2
 343 0025 8E       		.byte	0x8e
 344 0026 01       		.uleb128 0x1
 345 0027 00       		.align	2
 346              	.LEFDE0:
 347              	.LSFDE2:
 348 0028 18000000 		.4byte	.LEFDE2-.LASFDE2
 349              	.LASFDE2:
 350 002c 00000000 		.4byte	.Lframe0
 351 0030 78000000 		.4byte	.LFB4
 352 0034 44000000 		.4byte	.LFE4-.LFB4
 353 0038 42       		.byte	0x4
 354              		.4byte	.LCFI1-.LFB4
 355 0039 0E       		.byte	0xe
 356 003a 0C       		.uleb128 0xc
 357 003b 84       		.byte	0x84
 358 003c 03       		.uleb128 0x3
 359 003d 85       		.byte	0x85
 360 003e 02       		.uleb128 0x2
 361 003f 8E       		.byte	0x8e
 362 0040 01       		.uleb128 0x1
 363 0041 000000   		.align	2
 364              	.LEFDE2:
ARM GAS  /cygdrive/c/Users/embedded/AppData/Local/Temp/ccirHCzM.s 			page 9


 365              	.LSFDE4:
 366 0044 1C000000 		.4byte	.LEFDE4-.LASFDE4
 367              	.LASFDE4:
 368 0048 00000000 		.4byte	.Lframe0
 369 004c BC000000 		.4byte	.LFB3
 370 0050 4C000000 		.4byte	.LFE3-.LFB3
 371 0054 42       		.byte	0x4
 372              		.4byte	.LCFI2-.LFB3
 373 0055 0E       		.byte	0xe
 374 0056 14       		.uleb128 0x14
 375 0057 84       		.byte	0x84
 376 0058 05       		.uleb128 0x5
 377 0059 85       		.byte	0x85
 378 005a 04       		.uleb128 0x4
 379 005b 86       		.byte	0x86
 380 005c 03       		.uleb128 0x3
 381 005d 87       		.byte	0x87
 382 005e 02       		.uleb128 0x2
 383 005f 8E       		.byte	0x8e
 384 0060 01       		.uleb128 0x1
 385 0061 42       		.byte	0x4
 386              		.4byte	.LCFI3-.LCFI2
 387 0062 0E       		.byte	0xe
 388 0063 18       		.uleb128 0x18
 389              		.align	2
 390              	.LEFDE4:
 391              	.LSFDE6:
 392 0064 14000000 		.4byte	.LEFDE6-.LASFDE6
 393              	.LASFDE6:
 394 0068 00000000 		.4byte	.Lframe0
 395 006c 08010000 		.4byte	.LFB5
 396 0070 5C000000 		.4byte	.LFE5-.LFB5
 397 0074 42       		.byte	0x4
 398              		.4byte	.LCFI4-.LFB5
 399 0075 0E       		.byte	0xe
 400 0076 04       		.uleb128 0x4
 401 0077 8E       		.byte	0x8e
 402 0078 01       		.uleb128 0x1
 403 0079 000000   		.align	2
 404              	.LEFDE6:
 405              		.file 2 "./startup/../pre_emptive_os/api/../api/general.h"
 406              		.text
 407              	.Letext0:
 408              		.section	.debug_loc,"",%progbits
 409              	.Ldebug_loc0:
 410              	.LLST0:
 411 0000 00000000 		.4byte	.LFB2-.Ltext0
 412 0004 02000000 		.4byte	.LCFI0-.Ltext0
 413 0008 0100     		.2byte	0x1
 414 000a 5D       		.byte	0x5d
 415 000b 02000000 		.4byte	.LCFI0-.Ltext0
 416 000f 78000000 		.4byte	.LFE2-.Ltext0
 417 0013 0200     		.2byte	0x2
 418 0015 7D       		.byte	0x7d
 419 0016 08       		.sleb128 8
 420 0017 00000000 		.4byte	0x0
 421 001b 00000000 		.4byte	0x0
ARM GAS  /cygdrive/c/Users/embedded/AppData/Local/Temp/ccirHCzM.s 			page 10


 422              	.LLST1:
 423 001f 02000000 		.4byte	.LVL0-.Ltext0
 424 0023 04000000 		.4byte	.LVL1-.Ltext0
 425 0027 0100     		.2byte	0x1
 426 0029 50       		.byte	0x50
 427 002a 06000000 		.4byte	.LVL2-.Ltext0
 428 002e 62000000 		.4byte	.LVL5-.Ltext0
 429 0032 0100     		.2byte	0x1
 430 0034 54       		.byte	0x54
 431 0035 00000000 		.4byte	0x0
 432 0039 00000000 		.4byte	0x0
 433              	.LLST2:
 434 003d 02000000 		.4byte	.LVL0-.Ltext0
 435 0041 08000000 		.4byte	.LVL3-.Ltext0
 436 0045 0100     		.2byte	0x1
 437 0047 51       		.byte	0x51
 438 0048 0A000000 		.4byte	.LVL4-.Ltext0
 439 004c 78000000 		.4byte	.LFE2-.Ltext0
 440 0050 0100     		.2byte	0x1
 441 0052 50       		.byte	0x50
 442 0053 00000000 		.4byte	0x0
 443 0057 00000000 		.4byte	0x0
 444              	.LLST3:
 445 005b 78000000 		.4byte	.LFB4-.Ltext0
 446 005f 7A000000 		.4byte	.LCFI1-.Ltext0
 447 0063 0100     		.2byte	0x1
 448 0065 5D       		.byte	0x5d
 449 0066 7A000000 		.4byte	.LCFI1-.Ltext0
 450 006a BC000000 		.4byte	.LFE4-.Ltext0
 451 006e 0200     		.2byte	0x2
 452 0070 7D       		.byte	0x7d
 453 0071 0C       		.sleb128 12
 454 0072 00000000 		.4byte	0x0
 455 0076 00000000 		.4byte	0x0
 456              	.LLST4:
 457 007a 7C000000 		.4byte	.LVL6-.Ltext0
 458 007e B0000000 		.4byte	.LVL8-.Ltext0
 459 0082 0100     		.2byte	0x1
 460 0084 55       		.byte	0x55
 461 0085 00000000 		.4byte	0x0
 462 0089 00000000 		.4byte	0x0
 463              	.LLST5:
 464 008d BC000000 		.4byte	.LFB3-.Ltext0
 465 0091 BE000000 		.4byte	.LCFI2-.Ltext0
 466 0095 0100     		.2byte	0x1
 467 0097 5D       		.byte	0x5d
 468 0098 BE000000 		.4byte	.LCFI2-.Ltext0
 469 009c C0000000 		.4byte	.LCFI3-.Ltext0
 470 00a0 0200     		.2byte	0x2
 471 00a2 7D       		.byte	0x7d
 472 00a3 14       		.sleb128 20
 473 00a4 C0000000 		.4byte	.LCFI3-.Ltext0
 474 00a8 08010000 		.4byte	.LFE3-.Ltext0
 475 00ac 0200     		.2byte	0x2
 476 00ae 7D       		.byte	0x7d
 477 00af 18       		.sleb128 24
 478 00b0 00000000 		.4byte	0x0
ARM GAS  /cygdrive/c/Users/embedded/AppData/Local/Temp/ccirHCzM.s 			page 11


 479 00b4 00000000 		.4byte	0x0
 480              	.LLST6:
 481 00b8 C2000000 		.4byte	.LVL9-.Ltext0
 482 00bc FC000000 		.4byte	.LVL10-.Ltext0
 483 00c0 0100     		.2byte	0x1
 484 00c2 56       		.byte	0x56
 485 00c3 00000000 		.4byte	0x0
 486 00c7 00000000 		.4byte	0x0
 487              	.LLST7:
 488 00cb 08010000 		.4byte	.LFB5-.Ltext0
 489 00cf 0A010000 		.4byte	.LCFI4-.Ltext0
 490 00d3 0100     		.2byte	0x1
 491 00d5 5D       		.byte	0x5d
 492 00d6 0A010000 		.4byte	.LCFI4-.Ltext0
 493 00da 64010000 		.4byte	.LFE5-.Ltext0
 494 00de 0200     		.2byte	0x2
 495 00e0 7D       		.byte	0x7d
 496 00e1 04       		.sleb128 4
 497 00e2 00000000 		.4byte	0x0
 498 00e6 00000000 		.4byte	0x0
 499              	.LLST8:
 500 00ea 10010000 		.4byte	.LVL11-.Ltext0
 501 00ee 3E010000 		.4byte	.LVL14-.Ltext0
 502 00f2 0100     		.2byte	0x1
 503 00f4 50       		.byte	0x50
 504 00f5 52010000 		.4byte	.LVL15-.Ltext0
 505 00f9 64010000 		.4byte	.LFE5-.Ltext0
 506 00fd 0100     		.2byte	0x1
 507 00ff 50       		.byte	0x50
 508 0100 00000000 		.4byte	0x0
 509 0104 00000000 		.4byte	0x0
 510              	.LLST9:
 511 0108 12010000 		.4byte	.LVL12-.Ltext0
 512 010c 26010000 		.4byte	.LVL13-.Ltext0
 513 0110 0100     		.2byte	0x1
 514 0112 52       		.byte	0x52
 515 0113 52010000 		.4byte	.LVL15-.Ltext0
 516 0117 56010000 		.4byte	.LVL16-.Ltext0
 517 011b 0100     		.2byte	0x1
 518 011d 52       		.byte	0x52
 519 011e 5E010000 		.4byte	.LVL17-.Ltext0
 520 0122 64010000 		.4byte	.LFE5-.Ltext0
 521 0126 0100     		.2byte	0x1
 522 0128 52       		.byte	0x52
 523 0129 00000000 		.4byte	0x0
 524 012d 00000000 		.4byte	0x0
 525              		.section	.debug_info
 526 0000 8A010000 		.4byte	0x18a
 527 0004 0200     		.2byte	0x2
 528 0006 00000000 		.4byte	.Ldebug_abbrev0
 529 000a 04       		.byte	0x4
 530 000b 01       		.uleb128 0x1
 531 000c 00000000 		.4byte	.Ldebug_line0
 532 0010 64010000 		.4byte	.Letext0
 533 0014 00000000 		.4byte	.Ltext0
 534 0018 C7000000 		.4byte	.LASF19
 535 001c 01       		.byte	0x1
ARM GAS  /cygdrive/c/Users/embedded/AppData/Local/Temp/ccirHCzM.s 			page 12


 536 001d A3000000 		.4byte	.LASF20
 537 0021 64000000 		.4byte	.LASF21
 538 0025 02       		.uleb128 0x2
 539 0026 74553800 		.ascii	"tU8\000"
 540 002a 02       		.byte	0x2
 541 002b 47       		.byte	0x47
 542 002c 30000000 		.4byte	0x30
 543 0030 03       		.uleb128 0x3
 544 0031 B9000000 		.4byte	.LASF1
 545 0035 01       		.byte	0x1
 546 0036 08       		.byte	0x8
 547 0037 04       		.uleb128 0x4
 548 0038 37000000 		.4byte	.LASF0
 549 003c 02       		.byte	0x2
 550 003d 48       		.byte	0x48
 551 003e 42000000 		.4byte	0x42
 552 0042 03       		.uleb128 0x3
 553 0043 90000000 		.4byte	.LASF2
 554 0047 02       		.byte	0x2
 555 0048 07       		.byte	0x7
 556 0049 03       		.uleb128 0x3
 557 004a 45000000 		.4byte	.LASF3
 558 004e 04       		.byte	0x4
 559 004f 07       		.byte	0x7
 560 0050 03       		.uleb128 0x3
 561 0051 00000000 		.4byte	.LASF4
 562 0055 01       		.byte	0x1
 563 0056 06       		.byte	0x6
 564 0057 03       		.uleb128 0x3
 565 0058 E4000000 		.4byte	.LASF5
 566 005c 02       		.byte	0x2
 567 005d 05       		.byte	0x5
 568 005e 05       		.uleb128 0x5
 569 005f 696E7400 		.ascii	"int\000"
 570 0063 04       		.byte	0x4
 571 0064 05       		.byte	0x5
 572 0065 04       		.uleb128 0x4
 573 0066 31000000 		.4byte	.LASF6
 574 006a 02       		.byte	0x2
 575 006b 4D       		.byte	0x4d
 576 006c 30000000 		.4byte	0x30
 577 0070 03       		.uleb128 0x3
 578 0071 52000000 		.4byte	.LASF7
 579 0075 04       		.byte	0x4
 580 0076 07       		.byte	0x7
 581 0077 03       		.uleb128 0x3
 582 0078 52000000 		.4byte	.LASF7
 583 007c 04       		.byte	0x4
 584 007d 07       		.byte	0x7
 585 007e 03       		.uleb128 0x3
 586 007f 3C000000 		.4byte	.LASF8
 587 0083 04       		.byte	0x4
 588 0084 05       		.byte	0x5
 589 0085 03       		.uleb128 0x3
 590 0086 23000000 		.4byte	.LASF9
 591 008a 08       		.byte	0x8
 592 008b 05       		.byte	0x5
ARM GAS  /cygdrive/c/Users/embedded/AppData/Local/Temp/ccirHCzM.s 			page 13


 593 008c 03       		.uleb128 0x3
 594 008d F6000000 		.4byte	.LASF10
 595 0091 01       		.byte	0x1
 596 0092 08       		.byte	0x8
 597 0093 03       		.uleb128 0x3
 598 0094 0C000000 		.4byte	.LASF11
 599 0098 08       		.byte	0x8
 600 0099 07       		.byte	0x7
 601 009a 06       		.uleb128 0x6
 602 009b D2000000 		.4byte	0xd2
 603 009f 01       		.byte	0x1
 604 00a0 EE000000 		.4byte	.LASF14
 605 00a4 01       		.byte	0x1
 606 00a5 13       		.byte	0x13
 607 00a6 01       		.byte	0x1
 608 00a7 00000000 		.4byte	.LFB2
 609 00ab 78000000 		.4byte	.LFE2
 610 00af 00000000 		.4byte	.LLST0
 611 00b3 07       		.uleb128 0x7
 612 00b4 FB000000 		.4byte	.LASF12
 613 00b8 01       		.byte	0x1
 614 00b9 12       		.byte	0x12
 615 00ba 65000000 		.4byte	0x65
 616 00be 1F000000 		.4byte	.LLST1
 617 00c2 07       		.uleb128 0x7
 618 00c3 D3000000 		.4byte	.LASF13
 619 00c7 01       		.byte	0x1
 620 00c8 12       		.byte	0x12
 621 00c9 37000000 		.4byte	0x37
 622 00cd 3D000000 		.4byte	.LLST2
 623 00d1 00       		.byte	0x0
 624 00d2 08       		.uleb128 0x8
 625 00d3 03010000 		.4byte	0x103
 626 00d7 01       		.byte	0x1
 627 00d8 AC000000 		.4byte	.LASF15
 628 00dc 01       		.byte	0x1
 629 00dd 38       		.byte	0x38
 630 00de 78000000 		.4byte	.LFB4
 631 00e2 BC000000 		.4byte	.LFE4
 632 00e6 5B000000 		.4byte	.LLST3
 633 00ea 09       		.uleb128 0x9
 634 00eb 6900     		.ascii	"i\000"
 635 00ed 01       		.byte	0x1
 636 00ee 39       		.byte	0x39
 637 00ef 5E000000 		.4byte	0x5e
 638 00f3 7A000000 		.4byte	.LLST4
 639 00f7 0A       		.uleb128 0xa
 640 00f8 6A00     		.ascii	"j\000"
 641 00fa 01       		.byte	0x1
 642 00fb 3A       		.byte	0x3a
 643 00fc 5E000000 		.4byte	0x5e
 644 0100 01       		.byte	0x1
 645 0101 50       		.byte	0x50
 646 0102 00       		.byte	0x0
 647 0103 08       		.uleb128 0x8
 648 0104 32010000 		.4byte	0x132
 649 0108 01       		.byte	0x1
ARM GAS  /cygdrive/c/Users/embedded/AppData/Local/Temp/ccirHCzM.s 			page 14


 650 0109 06010000 		.4byte	.LASF16
 651 010d 01       		.byte	0x1
 652 010e 2C       		.byte	0x2c
 653 010f BC000000 		.4byte	.LFB3
 654 0113 08010000 		.4byte	.LFE3
 655 0117 8D000000 		.4byte	.LLST5
 656 011b 09       		.uleb128 0x9
 657 011c 6900     		.ascii	"i\000"
 658 011e 01       		.byte	0x1
 659 011f 2D       		.byte	0x2d
 660 0120 5E000000 		.4byte	0x5e
 661 0124 B8000000 		.4byte	.LLST6
 662 0128 0B       		.uleb128 0xb
 663 0129 6A00     		.ascii	"j\000"
 664 012b 01       		.byte	0x1
 665 012c 2E       		.byte	0x2e
 666 012d 5E000000 		.4byte	0x5e
 667 0131 00       		.byte	0x0
 668 0132 08       		.uleb128 0x8
 669 0133 65010000 		.4byte	0x165
 670 0137 01       		.byte	0x1
 671 0138 D9000000 		.4byte	.LASF17
 672 013c 01       		.byte	0x1
 673 013d 45       		.byte	0x45
 674 013e 08010000 		.4byte	.LFB5
 675 0142 64010000 		.4byte	.LFE5
 676 0146 CB000000 		.4byte	.LLST7
 677 014a 09       		.uleb128 0x9
 678 014b 6900     		.ascii	"i\000"
 679 014d 01       		.byte	0x1
 680 014e 47       		.byte	0x47
 681 014f 5E000000 		.4byte	0x5e
 682 0153 EA000000 		.4byte	.LLST8
 683 0157 09       		.uleb128 0x9
 684 0158 6A00     		.ascii	"j\000"
 685 015a 01       		.byte	0x1
 686 015b 48       		.byte	0x48
 687 015c 5E000000 		.4byte	0x5e
 688 0160 08010000 		.4byte	.LLST9
 689 0164 00       		.byte	0x0
 690 0165 0C       		.uleb128 0xc
 691 0166 7B010000 		.4byte	0x17b
 692 016a 25000000 		.4byte	0x25
 693 016e 0D       		.uleb128 0xd
 694 016f 70000000 		.4byte	0x70
 695 0173 0B       		.byte	0xb
 696 0174 0D       		.uleb128 0xd
 697 0175 70000000 		.4byte	0x70
 698 0179 11       		.byte	0x11
 699 017a 00       		.byte	0x0
 700 017b 0E       		.uleb128 0xe
 701 017c 10010000 		.4byte	.LASF18
 702 0180 01       		.byte	0x1
 703 0181 10       		.byte	0x10
 704 0182 65010000 		.4byte	0x165
 705 0186 01       		.byte	0x1
 706 0187 05       		.byte	0x5
ARM GAS  /cygdrive/c/Users/embedded/AppData/Local/Temp/ccirHCzM.s 			page 15


 707 0188 03       		.byte	0x3
 708 0189 00000000 		.4byte	boxesList
 709 018d 00       		.byte	0x0
 710              		.section	.debug_abbrev
 711 0000 01       		.uleb128 0x1
 712 0001 11       		.uleb128 0x11
 713 0002 01       		.byte	0x1
 714 0003 10       		.uleb128 0x10
 715 0004 06       		.uleb128 0x6
 716 0005 12       		.uleb128 0x12
 717 0006 01       		.uleb128 0x1
 718 0007 11       		.uleb128 0x11
 719 0008 01       		.uleb128 0x1
 720 0009 25       		.uleb128 0x25
 721 000a 0E       		.uleb128 0xe
 722 000b 13       		.uleb128 0x13
 723 000c 0B       		.uleb128 0xb
 724 000d 03       		.uleb128 0x3
 725 000e 0E       		.uleb128 0xe
 726 000f 1B       		.uleb128 0x1b
 727 0010 0E       		.uleb128 0xe
 728 0011 00       		.byte	0x0
 729 0012 00       		.byte	0x0
 730 0013 02       		.uleb128 0x2
 731 0014 16       		.uleb128 0x16
 732 0015 00       		.byte	0x0
 733 0016 03       		.uleb128 0x3
 734 0017 08       		.uleb128 0x8
 735 0018 3A       		.uleb128 0x3a
 736 0019 0B       		.uleb128 0xb
 737 001a 3B       		.uleb128 0x3b
 738 001b 0B       		.uleb128 0xb
 739 001c 49       		.uleb128 0x49
 740 001d 13       		.uleb128 0x13
 741 001e 00       		.byte	0x0
 742 001f 00       		.byte	0x0
 743 0020 03       		.uleb128 0x3
 744 0021 24       		.uleb128 0x24
 745 0022 00       		.byte	0x0
 746 0023 03       		.uleb128 0x3
 747 0024 0E       		.uleb128 0xe
 748 0025 0B       		.uleb128 0xb
 749 0026 0B       		.uleb128 0xb
 750 0027 3E       		.uleb128 0x3e
 751 0028 0B       		.uleb128 0xb
 752 0029 00       		.byte	0x0
 753 002a 00       		.byte	0x0
 754 002b 04       		.uleb128 0x4
 755 002c 16       		.uleb128 0x16
 756 002d 00       		.byte	0x0
 757 002e 03       		.uleb128 0x3
 758 002f 0E       		.uleb128 0xe
 759 0030 3A       		.uleb128 0x3a
 760 0031 0B       		.uleb128 0xb
 761 0032 3B       		.uleb128 0x3b
 762 0033 0B       		.uleb128 0xb
 763 0034 49       		.uleb128 0x49
ARM GAS  /cygdrive/c/Users/embedded/AppData/Local/Temp/ccirHCzM.s 			page 16


 764 0035 13       		.uleb128 0x13
 765 0036 00       		.byte	0x0
 766 0037 00       		.byte	0x0
 767 0038 05       		.uleb128 0x5
 768 0039 24       		.uleb128 0x24
 769 003a 00       		.byte	0x0
 770 003b 03       		.uleb128 0x3
 771 003c 08       		.uleb128 0x8
 772 003d 0B       		.uleb128 0xb
 773 003e 0B       		.uleb128 0xb
 774 003f 3E       		.uleb128 0x3e
 775 0040 0B       		.uleb128 0xb
 776 0041 00       		.byte	0x0
 777 0042 00       		.byte	0x0
 778 0043 06       		.uleb128 0x6
 779 0044 2E       		.uleb128 0x2e
 780 0045 01       		.byte	0x1
 781 0046 01       		.uleb128 0x1
 782 0047 13       		.uleb128 0x13
 783 0048 3F       		.uleb128 0x3f
 784 0049 0C       		.uleb128 0xc
 785 004a 03       		.uleb128 0x3
 786 004b 0E       		.uleb128 0xe
 787 004c 3A       		.uleb128 0x3a
 788 004d 0B       		.uleb128 0xb
 789 004e 3B       		.uleb128 0x3b
 790 004f 0B       		.uleb128 0xb
 791 0050 27       		.uleb128 0x27
 792 0051 0C       		.uleb128 0xc
 793 0052 11       		.uleb128 0x11
 794 0053 01       		.uleb128 0x1
 795 0054 12       		.uleb128 0x12
 796 0055 01       		.uleb128 0x1
 797 0056 40       		.uleb128 0x40
 798 0057 06       		.uleb128 0x6
 799 0058 00       		.byte	0x0
 800 0059 00       		.byte	0x0
 801 005a 07       		.uleb128 0x7
 802 005b 05       		.uleb128 0x5
 803 005c 00       		.byte	0x0
 804 005d 03       		.uleb128 0x3
 805 005e 0E       		.uleb128 0xe
 806 005f 3A       		.uleb128 0x3a
 807 0060 0B       		.uleb128 0xb
 808 0061 3B       		.uleb128 0x3b
 809 0062 0B       		.uleb128 0xb
 810 0063 49       		.uleb128 0x49
 811 0064 13       		.uleb128 0x13
 812 0065 02       		.uleb128 0x2
 813 0066 06       		.uleb128 0x6
 814 0067 00       		.byte	0x0
 815 0068 00       		.byte	0x0
 816 0069 08       		.uleb128 0x8
 817 006a 2E       		.uleb128 0x2e
 818 006b 01       		.byte	0x1
 819 006c 01       		.uleb128 0x1
 820 006d 13       		.uleb128 0x13
ARM GAS  /cygdrive/c/Users/embedded/AppData/Local/Temp/ccirHCzM.s 			page 17


 821 006e 3F       		.uleb128 0x3f
 822 006f 0C       		.uleb128 0xc
 823 0070 03       		.uleb128 0x3
 824 0071 0E       		.uleb128 0xe
 825 0072 3A       		.uleb128 0x3a
 826 0073 0B       		.uleb128 0xb
 827 0074 3B       		.uleb128 0x3b
 828 0075 0B       		.uleb128 0xb
 829 0076 11       		.uleb128 0x11
 830 0077 01       		.uleb128 0x1
 831 0078 12       		.uleb128 0x12
 832 0079 01       		.uleb128 0x1
 833 007a 40       		.uleb128 0x40
 834 007b 06       		.uleb128 0x6
 835 007c 00       		.byte	0x0
 836 007d 00       		.byte	0x0
 837 007e 09       		.uleb128 0x9
 838 007f 34       		.uleb128 0x34
 839 0080 00       		.byte	0x0
 840 0081 03       		.uleb128 0x3
 841 0082 08       		.uleb128 0x8
 842 0083 3A       		.uleb128 0x3a
 843 0084 0B       		.uleb128 0xb
 844 0085 3B       		.uleb128 0x3b
 845 0086 0B       		.uleb128 0xb
 846 0087 49       		.uleb128 0x49
 847 0088 13       		.uleb128 0x13
 848 0089 02       		.uleb128 0x2
 849 008a 06       		.uleb128 0x6
 850 008b 00       		.byte	0x0
 851 008c 00       		.byte	0x0
 852 008d 0A       		.uleb128 0xa
 853 008e 34       		.uleb128 0x34
 854 008f 00       		.byte	0x0
 855 0090 03       		.uleb128 0x3
 856 0091 08       		.uleb128 0x8
 857 0092 3A       		.uleb128 0x3a
 858 0093 0B       		.uleb128 0xb
 859 0094 3B       		.uleb128 0x3b
 860 0095 0B       		.uleb128 0xb
 861 0096 49       		.uleb128 0x49
 862 0097 13       		.uleb128 0x13
 863 0098 02       		.uleb128 0x2
 864 0099 0A       		.uleb128 0xa
 865 009a 00       		.byte	0x0
 866 009b 00       		.byte	0x0
 867 009c 0B       		.uleb128 0xb
 868 009d 34       		.uleb128 0x34
 869 009e 00       		.byte	0x0
 870 009f 03       		.uleb128 0x3
 871 00a0 08       		.uleb128 0x8
 872 00a1 3A       		.uleb128 0x3a
 873 00a2 0B       		.uleb128 0xb
 874 00a3 3B       		.uleb128 0x3b
 875 00a4 0B       		.uleb128 0xb
 876 00a5 49       		.uleb128 0x49
 877 00a6 13       		.uleb128 0x13
ARM GAS  /cygdrive/c/Users/embedded/AppData/Local/Temp/ccirHCzM.s 			page 18


 878 00a7 00       		.byte	0x0
 879 00a8 00       		.byte	0x0
 880 00a9 0C       		.uleb128 0xc
 881 00aa 01       		.uleb128 0x1
 882 00ab 01       		.byte	0x1
 883 00ac 01       		.uleb128 0x1
 884 00ad 13       		.uleb128 0x13
 885 00ae 49       		.uleb128 0x49
 886 00af 13       		.uleb128 0x13
 887 00b0 00       		.byte	0x0
 888 00b1 00       		.byte	0x0
 889 00b2 0D       		.uleb128 0xd
 890 00b3 21       		.uleb128 0x21
 891 00b4 00       		.byte	0x0
 892 00b5 49       		.uleb128 0x49
 893 00b6 13       		.uleb128 0x13
 894 00b7 2F       		.uleb128 0x2f
 895 00b8 0B       		.uleb128 0xb
 896 00b9 00       		.byte	0x0
 897 00ba 00       		.byte	0x0
 898 00bb 0E       		.uleb128 0xe
 899 00bc 34       		.uleb128 0x34
 900 00bd 00       		.byte	0x0
 901 00be 03       		.uleb128 0x3
 902 00bf 0E       		.uleb128 0xe
 903 00c0 3A       		.uleb128 0x3a
 904 00c1 0B       		.uleb128 0xb
 905 00c2 3B       		.uleb128 0x3b
 906 00c3 0B       		.uleb128 0xb
 907 00c4 49       		.uleb128 0x49
 908 00c5 13       		.uleb128 0x13
 909 00c6 3F       		.uleb128 0x3f
 910 00c7 0C       		.uleb128 0xc
 911 00c8 02       		.uleb128 0x2
 912 00c9 0A       		.uleb128 0xa
 913 00ca 00       		.byte	0x0
 914 00cb 00       		.byte	0x0
 915 00cc 00       		.byte	0x0
 916              		.section	.debug_pubnames,"",%progbits
 917 0000 56000000 		.4byte	0x56
 918 0004 0200     		.2byte	0x2
 919 0006 00000000 		.4byte	.Ldebug_info0
 920 000a 8E010000 		.4byte	0x18e
 921 000e 9A000000 		.4byte	0x9a
 922 0012 64656C61 		.ascii	"delayMS\000"
 922      794D5300 
 923 001a D2000000 		.4byte	0xd2
 924 001e 6170706C 		.ascii	"applyGravity\000"
 924      79477261 
 924      76697479 
 924      00
 925 002b 03010000 		.4byte	0x103
 926 002f 64726177 		.ascii	"drawBoard\000"
 926      426F6172 
 926      6400
 927 0039 32010000 		.4byte	0x132
 928 003d 706C6179 		.ascii	"playTetris\000"
ARM GAS  /cygdrive/c/Users/embedded/AppData/Local/Temp/ccirHCzM.s 			page 19


 928      54657472 
 928      697300
 929 0048 7B010000 		.4byte	0x17b
 930 004c 626F7865 		.ascii	"boxesList\000"
 930      734C6973 
 930      7400
 931 0056 00000000 		.4byte	0x0
 932              		.section	.debug_aranges,"",%progbits
 933 0000 1C000000 		.4byte	0x1c
 934 0004 0200     		.2byte	0x2
 935 0006 00000000 		.4byte	.Ldebug_info0
 936 000a 04       		.byte	0x4
 937 000b 00       		.byte	0x0
 938 000c 0000     		.2byte	0x0
 939 000e 0000     		.2byte	0x0
 940 0010 00000000 		.4byte	.Ltext0
 941 0014 64010000 		.4byte	.Letext0-.Ltext0
 942 0018 00000000 		.4byte	0x0
 943 001c 00000000 		.4byte	0x0
 944              		.section	.debug_str,"MS",%progbits,1
 945              	.LASF4:
 946 0000 7369676E 		.ascii	"signed char\000"
 946      65642063 
 946      68617200 
 947              	.LASF11:
 948 000c 6C6F6E67 		.ascii	"long long unsigned int\000"
 948      206C6F6E 
 948      6720756E 
 948      7369676E 
 948      65642069 
 949              	.LASF9:
 950 0023 6C6F6E67 		.ascii	"long long int\000"
 950      206C6F6E 
 950      6720696E 
 950      7400
 951              	.LASF6:
 952 0031 74426F6F 		.ascii	"tBool\000"
 952      6C00
 953              	.LASF0:
 954 0037 74553136 		.ascii	"tU16\000"
 954      00
 955              	.LASF8:
 956 003c 6C6F6E67 		.ascii	"long int\000"
 956      20696E74 
 956      00
 957              	.LASF3:
 958 0045 756E7369 		.ascii	"unsigned int\000"
 958      676E6564 
 958      20696E74 
 958      00
 959              	.LASF7:
 960 0052 6C6F6E67 		.ascii	"long unsigned int\000"
 960      20756E73 
 960      69676E65 
 960      6420696E 
 960      7400
 961              	.LASF21:
ARM GAS  /cygdrive/c/Users/embedded/AppData/Local/Temp/ccirHCzM.s 			page 20


 962 0064 2F637967 		.ascii	"/cygdrive/c/Embedded/2104MiniDemo/Gameboard\000"
 962      64726976 
 962      652F632F 
 962      456D6265 
 962      64646564 
 963              	.LASF2:
 964 0090 73686F72 		.ascii	"short unsigned int\000"
 964      7420756E 
 964      7369676E 
 964      65642069 
 964      6E7400
 965              	.LASF20:
 966 00a3 74657472 		.ascii	"tetris.c\000"
 966      69732E63 
 966      00
 967              	.LASF15:
 968 00ac 6170706C 		.ascii	"applyGravity\000"
 968      79477261 
 968      76697479 
 968      00
 969              	.LASF1:
 970 00b9 756E7369 		.ascii	"unsigned char\000"
 970      676E6564 
 970      20636861 
 970      7200
 971              	.LASF19:
 972 00c7 474E5520 		.ascii	"GNU C 4.1.1\000"
 972      4320342E 
 972      312E3100 
 973              	.LASF13:
 974 00d3 64656C61 		.ascii	"delay\000"
 974      7900
 975              	.LASF17:
 976 00d9 706C6179 		.ascii	"playTetris\000"
 976      54657472 
 976      697300
 977              	.LASF5:
 978 00e4 73686F72 		.ascii	"short int\000"
 978      7420696E 
 978      7400
 979              	.LASF14:
 980 00ee 64656C61 		.ascii	"delayMS\000"
 980      794D5300 
 981              	.LASF10:
 982 00f6 63686172 		.ascii	"char\000"
 982      00
 983              	.LASF12:
 984 00fb 77686963 		.ascii	"whichTimer\000"
 984      6854696D 
 984      657200
 985              	.LASF16:
 986 0106 64726177 		.ascii	"drawBoard\000"
 986      426F6172 
 986      6400
 987              	.LASF18:
 988 0110 626F7865 		.ascii	"boxesList\000"
 988      734C6973 
ARM GAS  /cygdrive/c/Users/embedded/AppData/Local/Temp/ccirHCzM.s 			page 21


 988      7400
 989              		.ident	"GCC: (GNU) 4.1.1"
ARM GAS  /cygdrive/c/Users/embedded/AppData/Local/Temp/ccirHCzM.s 			page 22


DEFINED SYMBOLS
                            *ABS*:00000000 tetris.c
/cygdrive/c/Users/embedded/AppData/Local/Temp/ccirHCzM.s:1      .text:00000000 $t
/cygdrive/c/Users/embedded/AppData/Local/Temp/ccirHCzM.s:16     .text:00000000 delayMS
/cygdrive/c/Users/embedded/AppData/Local/Temp/ccirHCzM.s:102    .text:00000068 $d
/cygdrive/c/Users/embedded/AppData/Local/Temp/ccirHCzM.s:113    .text:00000078 applyGravity
/cygdrive/c/Users/embedded/AppData/Local/Temp/ccirHCzM.s:110    .text:00000078 $t
/cygdrive/c/Users/embedded/AppData/Local/Temp/ccirHCzM.s:169    .text:000000b8 $d
                            *COM*:000000d8 boxesList
/cygdrive/c/Users/embedded/AppData/Local/Temp/ccirHCzM.s:177    .text:000000bc drawBoard
/cygdrive/c/Users/embedded/AppData/Local/Temp/ccirHCzM.s:174    .text:000000bc $t
/cygdrive/c/Users/embedded/AppData/Local/Temp/ccirHCzM.s:232    .text:00000104 $d
/cygdrive/c/Users/embedded/AppData/Local/Temp/ccirHCzM.s:240    .text:00000108 playTetris
/cygdrive/c/Users/embedded/AppData/Local/Temp/ccirHCzM.s:237    .text:00000108 $t
/cygdrive/c/Users/embedded/AppData/Local/Temp/ccirHCzM.s:312    .text:00000160 $d

UNDEFINED SYMBOLS
lcdRect
lcdClrscr
